
ctarget:     file format elf64-x86-64


Disassembly of section .init:

0000000000400c48 <_init>:
  400c48:	48 83 ec 08          	sub    $0x8,%rsp
  400c4c:	48 8b 05 a5 33 20 00 	mov    0x2033a5(%rip),%rax        # 603ff8 <__gmon_start__>
  400c53:	48 85 c0             	test   %rax,%rax
  400c56:	74 02                	je     400c5a <_init+0x12>
  400c58:	ff d0                	callq  *%rax
  400c5a:	48 83 c4 08          	add    $0x8,%rsp
  400c5e:	c3                   	retq   

Disassembly of section .plt:

0000000000400c60 <.plt>:
  400c60:	ff 35 a2 33 20 00    	pushq  0x2033a2(%rip)        # 604008 <_GLOBAL_OFFSET_TABLE_+0x8>
  400c66:	ff 25 a4 33 20 00    	jmpq   *0x2033a4(%rip)        # 604010 <_GLOBAL_OFFSET_TABLE_+0x10>
  400c6c:	0f 1f 40 00          	nopl   0x0(%rax)

0000000000400c70 <strcasecmp@plt>:
  400c70:	ff 25 a2 33 20 00    	jmpq   *0x2033a2(%rip)        # 604018 <strcasecmp@GLIBC_2.2.5>
  400c76:	68 00 00 00 00       	pushq  $0x0
  400c7b:	e9 e0 ff ff ff       	jmpq   400c60 <.plt>

0000000000400c80 <__errno_location@plt>:
  400c80:	ff 25 9a 33 20 00    	jmpq   *0x20339a(%rip)        # 604020 <__errno_location@GLIBC_2.2.5>
  400c86:	68 01 00 00 00       	pushq  $0x1
  400c8b:	e9 d0 ff ff ff       	jmpq   400c60 <.plt>

0000000000400c90 <srandom@plt>:
  400c90:	ff 25 92 33 20 00    	jmpq   *0x203392(%rip)        # 604028 <srandom@GLIBC_2.2.5>
  400c96:	68 02 00 00 00       	pushq  $0x2
  400c9b:	e9 c0 ff ff ff       	jmpq   400c60 <.plt>

0000000000400ca0 <strncmp@plt>:
  400ca0:	ff 25 8a 33 20 00    	jmpq   *0x20338a(%rip)        # 604030 <strncmp@GLIBC_2.2.5>
  400ca6:	68 03 00 00 00       	pushq  $0x3
  400cab:	e9 b0 ff ff ff       	jmpq   400c60 <.plt>

0000000000400cb0 <strcpy@plt>:
  400cb0:	ff 25 82 33 20 00    	jmpq   *0x203382(%rip)        # 604038 <strcpy@GLIBC_2.2.5>
  400cb6:	68 04 00 00 00       	pushq  $0x4
  400cbb:	e9 a0 ff ff ff       	jmpq   400c60 <.plt>

0000000000400cc0 <puts@plt>:
  400cc0:	ff 25 7a 33 20 00    	jmpq   *0x20337a(%rip)        # 604040 <puts@GLIBC_2.2.5>
  400cc6:	68 05 00 00 00       	pushq  $0x5
  400ccb:	e9 90 ff ff ff       	jmpq   400c60 <.plt>

0000000000400cd0 <write@plt>:
  400cd0:	ff 25 72 33 20 00    	jmpq   *0x203372(%rip)        # 604048 <write@GLIBC_2.2.5>
  400cd6:	68 06 00 00 00       	pushq  $0x6
  400cdb:	e9 80 ff ff ff       	jmpq   400c60 <.plt>

0000000000400ce0 <__stack_chk_fail@plt>:
  400ce0:	ff 25 6a 33 20 00    	jmpq   *0x20336a(%rip)        # 604050 <__stack_chk_fail@GLIBC_2.4>
  400ce6:	68 07 00 00 00       	pushq  $0x7
  400ceb:	e9 70 ff ff ff       	jmpq   400c60 <.plt>

0000000000400cf0 <mmap@plt>:
  400cf0:	ff 25 62 33 20 00    	jmpq   *0x203362(%rip)        # 604058 <mmap@GLIBC_2.2.5>
  400cf6:	68 08 00 00 00       	pushq  $0x8
  400cfb:	e9 60 ff ff ff       	jmpq   400c60 <.plt>

0000000000400d00 <memset@plt>:
  400d00:	ff 25 5a 33 20 00    	jmpq   *0x20335a(%rip)        # 604060 <memset@GLIBC_2.2.5>
  400d06:	68 09 00 00 00       	pushq  $0x9
  400d0b:	e9 50 ff ff ff       	jmpq   400c60 <.plt>

0000000000400d10 <alarm@plt>:
  400d10:	ff 25 52 33 20 00    	jmpq   *0x203352(%rip)        # 604068 <alarm@GLIBC_2.2.5>
  400d16:	68 0a 00 00 00       	pushq  $0xa
  400d1b:	e9 40 ff ff ff       	jmpq   400c60 <.plt>

0000000000400d20 <close@plt>:
  400d20:	ff 25 4a 33 20 00    	jmpq   *0x20334a(%rip)        # 604070 <close@GLIBC_2.2.5>
  400d26:	68 0b 00 00 00       	pushq  $0xb
  400d2b:	e9 30 ff ff ff       	jmpq   400c60 <.plt>

0000000000400d30 <read@plt>:
  400d30:	ff 25 42 33 20 00    	jmpq   *0x203342(%rip)        # 604078 <read@GLIBC_2.2.5>
  400d36:	68 0c 00 00 00       	pushq  $0xc
  400d3b:	e9 20 ff ff ff       	jmpq   400c60 <.plt>

0000000000400d40 <signal@plt>:
  400d40:	ff 25 3a 33 20 00    	jmpq   *0x20333a(%rip)        # 604080 <signal@GLIBC_2.2.5>
  400d46:	68 0d 00 00 00       	pushq  $0xd
  400d4b:	e9 10 ff ff ff       	jmpq   400c60 <.plt>

0000000000400d50 <gethostbyname@plt>:
  400d50:	ff 25 32 33 20 00    	jmpq   *0x203332(%rip)        # 604088 <gethostbyname@GLIBC_2.2.5>
  400d56:	68 0e 00 00 00       	pushq  $0xe
  400d5b:	e9 00 ff ff ff       	jmpq   400c60 <.plt>

0000000000400d60 <__memmove_chk@plt>:
  400d60:	ff 25 2a 33 20 00    	jmpq   *0x20332a(%rip)        # 604090 <__memmove_chk@GLIBC_2.3.4>
  400d66:	68 0f 00 00 00       	pushq  $0xf
  400d6b:	e9 f0 fe ff ff       	jmpq   400c60 <.plt>

0000000000400d70 <strtol@plt>:
  400d70:	ff 25 22 33 20 00    	jmpq   *0x203322(%rip)        # 604098 <strtol@GLIBC_2.2.5>
  400d76:	68 10 00 00 00       	pushq  $0x10
  400d7b:	e9 e0 fe ff ff       	jmpq   400c60 <.plt>

0000000000400d80 <memcpy@plt>:
  400d80:	ff 25 1a 33 20 00    	jmpq   *0x20331a(%rip)        # 6040a0 <memcpy@GLIBC_2.14>
  400d86:	68 11 00 00 00       	pushq  $0x11
  400d8b:	e9 d0 fe ff ff       	jmpq   400c60 <.plt>

0000000000400d90 <time@plt>:
  400d90:	ff 25 12 33 20 00    	jmpq   *0x203312(%rip)        # 6040a8 <time@GLIBC_2.2.5>
  400d96:	68 12 00 00 00       	pushq  $0x12
  400d9b:	e9 c0 fe ff ff       	jmpq   400c60 <.plt>

0000000000400da0 <random@plt>:
  400da0:	ff 25 0a 33 20 00    	jmpq   *0x20330a(%rip)        # 6040b0 <random@GLIBC_2.2.5>
  400da6:	68 13 00 00 00       	pushq  $0x13
  400dab:	e9 b0 fe ff ff       	jmpq   400c60 <.plt>

0000000000400db0 <_IO_getc@plt>:
  400db0:	ff 25 02 33 20 00    	jmpq   *0x203302(%rip)        # 6040b8 <_IO_getc@GLIBC_2.2.5>
  400db6:	68 14 00 00 00       	pushq  $0x14
  400dbb:	e9 a0 fe ff ff       	jmpq   400c60 <.plt>

0000000000400dc0 <__isoc99_sscanf@plt>:
  400dc0:	ff 25 fa 32 20 00    	jmpq   *0x2032fa(%rip)        # 6040c0 <__isoc99_sscanf@GLIBC_2.7>
  400dc6:	68 15 00 00 00       	pushq  $0x15
  400dcb:	e9 90 fe ff ff       	jmpq   400c60 <.plt>

0000000000400dd0 <munmap@plt>:
  400dd0:	ff 25 f2 32 20 00    	jmpq   *0x2032f2(%rip)        # 6040c8 <munmap@GLIBC_2.2.5>
  400dd6:	68 16 00 00 00       	pushq  $0x16
  400ddb:	e9 80 fe ff ff       	jmpq   400c60 <.plt>

0000000000400de0 <__printf_chk@plt>:
  400de0:	ff 25 ea 32 20 00    	jmpq   *0x2032ea(%rip)        # 6040d0 <__printf_chk@GLIBC_2.3.4>
  400de6:	68 17 00 00 00       	pushq  $0x17
  400deb:	e9 70 fe ff ff       	jmpq   400c60 <.plt>

0000000000400df0 <fopen@plt>:
  400df0:	ff 25 e2 32 20 00    	jmpq   *0x2032e2(%rip)        # 6040d8 <fopen@GLIBC_2.2.5>
  400df6:	68 18 00 00 00       	pushq  $0x18
  400dfb:	e9 60 fe ff ff       	jmpq   400c60 <.plt>

0000000000400e00 <getopt@plt>:
  400e00:	ff 25 da 32 20 00    	jmpq   *0x2032da(%rip)        # 6040e0 <getopt@GLIBC_2.2.5>
  400e06:	68 19 00 00 00       	pushq  $0x19
  400e0b:	e9 50 fe ff ff       	jmpq   400c60 <.plt>

0000000000400e10 <strtoul@plt>:
  400e10:	ff 25 d2 32 20 00    	jmpq   *0x2032d2(%rip)        # 6040e8 <strtoul@GLIBC_2.2.5>
  400e16:	68 1a 00 00 00       	pushq  $0x1a
  400e1b:	e9 40 fe ff ff       	jmpq   400c60 <.plt>

0000000000400e20 <gethostname@plt>:
  400e20:	ff 25 ca 32 20 00    	jmpq   *0x2032ca(%rip)        # 6040f0 <gethostname@GLIBC_2.2.5>
  400e26:	68 1b 00 00 00       	pushq  $0x1b
  400e2b:	e9 30 fe ff ff       	jmpq   400c60 <.plt>

0000000000400e30 <exit@plt>:
  400e30:	ff 25 c2 32 20 00    	jmpq   *0x2032c2(%rip)        # 6040f8 <exit@GLIBC_2.2.5>
  400e36:	68 1c 00 00 00       	pushq  $0x1c
  400e3b:	e9 20 fe ff ff       	jmpq   400c60 <.plt>

0000000000400e40 <connect@plt>:
  400e40:	ff 25 ba 32 20 00    	jmpq   *0x2032ba(%rip)        # 604100 <connect@GLIBC_2.2.5>
  400e46:	68 1d 00 00 00       	pushq  $0x1d
  400e4b:	e9 10 fe ff ff       	jmpq   400c60 <.plt>

0000000000400e50 <__fprintf_chk@plt>:
  400e50:	ff 25 b2 32 20 00    	jmpq   *0x2032b2(%rip)        # 604108 <__fprintf_chk@GLIBC_2.3.4>
  400e56:	68 1e 00 00 00       	pushq  $0x1e
  400e5b:	e9 00 fe ff ff       	jmpq   400c60 <.plt>

0000000000400e60 <__sprintf_chk@plt>:
  400e60:	ff 25 aa 32 20 00    	jmpq   *0x2032aa(%rip)        # 604110 <__sprintf_chk@GLIBC_2.3.4>
  400e66:	68 1f 00 00 00       	pushq  $0x1f
  400e6b:	e9 f0 fd ff ff       	jmpq   400c60 <.plt>

0000000000400e70 <socket@plt>:
  400e70:	ff 25 a2 32 20 00    	jmpq   *0x2032a2(%rip)        # 604118 <socket@GLIBC_2.2.5>
  400e76:	68 20 00 00 00       	pushq  $0x20
  400e7b:	e9 e0 fd ff ff       	jmpq   400c60 <.plt>

Disassembly of section .text:

0000000000400e80 <_start>:
  400e80:	31 ed                	xor    %ebp,%ebp
  400e82:	49 89 d1             	mov    %rdx,%r9
  400e85:	5e                   	pop    %rsi
  400e86:	48 89 e2             	mov    %rsp,%rdx
  400e89:	48 83 e4 f0          	and    $0xfffffffffffffff0,%rsp
  400e8d:	50                   	push   %rax
  400e8e:	54                   	push   %rsp
  400e8f:	49 c7 c0 00 2f 40 00 	mov    $0x402f00,%r8
  400e96:	48 c7 c1 90 2e 40 00 	mov    $0x402e90,%rcx
  400e9d:	48 c7 c7 8e 11 40 00 	mov    $0x40118e,%rdi
  400ea4:	ff 15 46 31 20 00    	callq  *0x203146(%rip)        # 603ff0 <__libc_start_main@GLIBC_2.2.5>
  400eaa:	f4                   	hlt    
  400eab:	0f 1f 44 00 00       	nopl   0x0(%rax,%rax,1)

0000000000400eb0 <_dl_relocate_static_pie>:
  400eb0:	f3 c3                	repz retq 
  400eb2:	66 2e 0f 1f 84 00 00 	nopw   %cs:0x0(%rax,%rax,1)
  400eb9:	00 00 00 
  400ebc:	0f 1f 40 00          	nopl   0x0(%rax)

0000000000400ec0 <deregister_tm_clones>:
  400ec0:	55                   	push   %rbp
  400ec1:	b8 90 44 60 00       	mov    $0x604490,%eax
  400ec6:	48 3d 90 44 60 00    	cmp    $0x604490,%rax
  400ecc:	48 89 e5             	mov    %rsp,%rbp
  400ecf:	74 17                	je     400ee8 <deregister_tm_clones+0x28>
  400ed1:	b8 00 00 00 00       	mov    $0x0,%eax
  400ed6:	48 85 c0             	test   %rax,%rax
  400ed9:	74 0d                	je     400ee8 <deregister_tm_clones+0x28>
  400edb:	5d                   	pop    %rbp
  400edc:	bf 90 44 60 00       	mov    $0x604490,%edi
  400ee1:	ff e0                	jmpq   *%rax
  400ee3:	0f 1f 44 00 00       	nopl   0x0(%rax,%rax,1)
  400ee8:	5d                   	pop    %rbp
  400ee9:	c3                   	retq   
  400eea:	66 0f 1f 44 00 00    	nopw   0x0(%rax,%rax,1)

0000000000400ef0 <register_tm_clones>:
  400ef0:	be 90 44 60 00       	mov    $0x604490,%esi
  400ef5:	55                   	push   %rbp
  400ef6:	48 81 ee 90 44 60 00 	sub    $0x604490,%rsi
  400efd:	48 89 e5             	mov    %rsp,%rbp
  400f00:	48 c1 fe 03          	sar    $0x3,%rsi
  400f04:	48 89 f0             	mov    %rsi,%rax
  400f07:	48 c1 e8 3f          	shr    $0x3f,%rax
  400f0b:	48 01 c6             	add    %rax,%rsi
  400f0e:	48 d1 fe             	sar    %rsi
  400f11:	74 15                	je     400f28 <register_tm_clones+0x38>
  400f13:	b8 00 00 00 00       	mov    $0x0,%eax
  400f18:	48 85 c0             	test   %rax,%rax
  400f1b:	74 0b                	je     400f28 <register_tm_clones+0x38>
  400f1d:	5d                   	pop    %rbp
  400f1e:	bf 90 44 60 00       	mov    $0x604490,%edi
  400f23:	ff e0                	jmpq   *%rax
  400f25:	0f 1f 00             	nopl   (%rax)
  400f28:	5d                   	pop    %rbp
  400f29:	c3                   	retq   
  400f2a:	66 0f 1f 44 00 00    	nopw   0x0(%rax,%rax,1)

0000000000400f30 <__do_global_dtors_aux>:
  400f30:	80 3d 91 35 20 00 00 	cmpb   $0x0,0x203591(%rip)        # 6044c8 <completed.7698>
  400f37:	75 17                	jne    400f50 <__do_global_dtors_aux+0x20>
  400f39:	55                   	push   %rbp
  400f3a:	48 89 e5             	mov    %rsp,%rbp
  400f3d:	e8 7e ff ff ff       	callq  400ec0 <deregister_tm_clones>
  400f42:	c6 05 7f 35 20 00 01 	movb   $0x1,0x20357f(%rip)        # 6044c8 <completed.7698>
  400f49:	5d                   	pop    %rbp
  400f4a:	c3                   	retq   
  400f4b:	0f 1f 44 00 00       	nopl   0x0(%rax,%rax,1)
  400f50:	f3 c3                	repz retq 
  400f52:	0f 1f 40 00          	nopl   0x0(%rax)
  400f56:	66 2e 0f 1f 84 00 00 	nopw   %cs:0x0(%rax,%rax,1)
  400f5d:	00 00 00 

0000000000400f60 <frame_dummy>:
  400f60:	55                   	push   %rbp
  400f61:	48 89 e5             	mov    %rsp,%rbp
  400f64:	5d                   	pop    %rbp
  400f65:	eb 89                	jmp    400ef0 <register_tm_clones>

0000000000400f67 <usage>:
  400f67:	48 83 ec 08          	sub    $0x8,%rsp
  400f6b:	48 89 fa             	mov    %rdi,%rdx
  400f6e:	83 3d 93 35 20 00 00 	cmpl   $0x0,0x203593(%rip)        # 604508 <is_checker>
  400f75:	74 50                	je     400fc7 <usage+0x60>
  400f77:	48 8d 35 9a 1f 00 00 	lea    0x1f9a(%rip),%rsi        # 402f18 <_IO_stdin_used+0x8>
  400f7e:	bf 01 00 00 00       	mov    $0x1,%edi
  400f83:	b8 00 00 00 00       	mov    $0x0,%eax
  400f88:	e8 53 fe ff ff       	callq  400de0 <__printf_chk@plt>
  400f8d:	48 8d 3d bc 1f 00 00 	lea    0x1fbc(%rip),%rdi        # 402f50 <_IO_stdin_used+0x40>
  400f94:	e8 27 fd ff ff       	callq  400cc0 <puts@plt>
  400f99:	48 8d 3d 28 21 00 00 	lea    0x2128(%rip),%rdi        # 4030c8 <_IO_stdin_used+0x1b8>
  400fa0:	e8 1b fd ff ff       	callq  400cc0 <puts@plt>
  400fa5:	48 8d 3d cc 1f 00 00 	lea    0x1fcc(%rip),%rdi        # 402f78 <_IO_stdin_used+0x68>
  400fac:	e8 0f fd ff ff       	callq  400cc0 <puts@plt>
  400fb1:	48 8d 3d 2a 21 00 00 	lea    0x212a(%rip),%rdi        # 4030e2 <_IO_stdin_used+0x1d2>
  400fb8:	e8 03 fd ff ff       	callq  400cc0 <puts@plt>
  400fbd:	bf 00 00 00 00       	mov    $0x0,%edi
  400fc2:	e8 69 fe ff ff       	callq  400e30 <exit@plt>
  400fc7:	48 8d 35 30 21 00 00 	lea    0x2130(%rip),%rsi        # 4030fe <_IO_stdin_used+0x1ee>
  400fce:	bf 01 00 00 00       	mov    $0x1,%edi
  400fd3:	b8 00 00 00 00       	mov    $0x0,%eax
  400fd8:	e8 03 fe ff ff       	callq  400de0 <__printf_chk@plt>
  400fdd:	48 8d 3d bc 1f 00 00 	lea    0x1fbc(%rip),%rdi        # 402fa0 <_IO_stdin_used+0x90>
  400fe4:	e8 d7 fc ff ff       	callq  400cc0 <puts@plt>
  400fe9:	48 8d 3d d8 1f 00 00 	lea    0x1fd8(%rip),%rdi        # 402fc8 <_IO_stdin_used+0xb8>
  400ff0:	e8 cb fc ff ff       	callq  400cc0 <puts@plt>
  400ff5:	48 8d 3d 20 21 00 00 	lea    0x2120(%rip),%rdi        # 40311c <_IO_stdin_used+0x20c>
  400ffc:	e8 bf fc ff ff       	callq  400cc0 <puts@plt>
  401001:	eb ba                	jmp    400fbd <usage+0x56>

0000000000401003 <initialize_target>:
  401003:	55                   	push   %rbp
  401004:	53                   	push   %rbx
  401005:	48 81 ec 18 21 00 00 	sub    $0x2118,%rsp
  40100c:	89 f5                	mov    %esi,%ebp
  40100e:	64 48 8b 04 25 28 00 	mov    %fs:0x28,%rax
  401015:	00 00 
  401017:	48 89 84 24 08 21 00 	mov    %rax,0x2108(%rsp)
  40101e:	00 
  40101f:	31 c0                	xor    %eax,%eax
  401021:	89 3d d1 34 20 00    	mov    %edi,0x2034d1(%rip)        # 6044f8 <check_level>
  401027:	8b 3d 03 31 20 00    	mov    0x203103(%rip),%edi        # 604130 <target_id>
  40102d:	e8 34 1e 00 00       	callq  402e66 <gencookie>
  401032:	89 05 cc 34 20 00    	mov    %eax,0x2034cc(%rip)        # 604504 <cookie>
  401038:	89 c7                	mov    %eax,%edi
  40103a:	e8 27 1e 00 00       	callq  402e66 <gencookie>
  40103f:	89 05 bb 34 20 00    	mov    %eax,0x2034bb(%rip)        # 604500 <authkey>
  401045:	8b 05 e5 30 20 00    	mov    0x2030e5(%rip),%eax        # 604130 <target_id>
  40104b:	8d 78 01             	lea    0x1(%rax),%edi
  40104e:	e8 3d fc ff ff       	callq  400c90 <srandom@plt>
  401053:	e8 48 fd ff ff       	callq  400da0 <random@plt>
  401058:	89 c7                	mov    %eax,%edi
  40105a:	e8 1a 03 00 00       	callq  401379 <scramble>
  40105f:	89 c3                	mov    %eax,%ebx
  401061:	85 ed                	test   %ebp,%ebp
  401063:	75 54                	jne    4010b9 <initialize_target+0xb6>
  401065:	b8 00 00 00 00       	mov    $0x0,%eax
  40106a:	01 d8                	add    %ebx,%eax
  40106c:	0f b7 c0             	movzwl %ax,%eax
  40106f:	8d 04 c5 00 01 00 00 	lea    0x100(,%rax,8),%eax
  401076:	89 c0                	mov    %eax,%eax
  401078:	48 89 05 01 34 20 00 	mov    %rax,0x203401(%rip)        # 604480 <buf_offset>
  40107f:	c6 05 a2 40 20 00 63 	movb   $0x63,0x2040a2(%rip)        # 605128 <target_prefix>
  401086:	83 3d fb 33 20 00 00 	cmpl   $0x0,0x2033fb(%rip)        # 604488 <notify>
  40108d:	74 09                	je     401098 <initialize_target+0x95>
  40108f:	83 3d 72 34 20 00 00 	cmpl   $0x0,0x203472(%rip)        # 604508 <is_checker>
  401096:	74 39                	je     4010d1 <initialize_target+0xce>
  401098:	48 8b 84 24 08 21 00 	mov    0x2108(%rsp),%rax
  40109f:	00 
  4010a0:	64 48 33 04 25 28 00 	xor    %fs:0x28,%rax
  4010a7:	00 00 
  4010a9:	0f 85 da 00 00 00    	jne    401189 <initialize_target+0x186>
  4010af:	48 81 c4 18 21 00 00 	add    $0x2118,%rsp
  4010b6:	5b                   	pop    %rbx
  4010b7:	5d                   	pop    %rbp
  4010b8:	c3                   	retq   
  4010b9:	bf 00 00 00 00       	mov    $0x0,%edi
  4010be:	e8 cd fc ff ff       	callq  400d90 <time@plt>
  4010c3:	89 c7                	mov    %eax,%edi
  4010c5:	e8 c6 fb ff ff       	callq  400c90 <srandom@plt>
  4010ca:	e8 d1 fc ff ff       	callq  400da0 <random@plt>
  4010cf:	eb 99                	jmp    40106a <initialize_target+0x67>
  4010d1:	48 89 e7             	mov    %rsp,%rdi
  4010d4:	be 00 01 00 00       	mov    $0x100,%esi
  4010d9:	e8 42 fd ff ff       	callq  400e20 <gethostname@plt>
  4010de:	89 c5                	mov    %eax,%ebp
  4010e0:	85 c0                	test   %eax,%eax
  4010e2:	75 26                	jne    40110a <initialize_target+0x107>
  4010e4:	89 c3                	mov    %eax,%ebx
  4010e6:	48 63 c3             	movslq %ebx,%rax
  4010e9:	48 8d 15 70 30 20 00 	lea    0x203070(%rip),%rdx        # 604160 <host_table>
  4010f0:	48 8b 3c c2          	mov    (%rdx,%rax,8),%rdi
  4010f4:	48 85 ff             	test   %rdi,%rdi
  4010f7:	74 2c                	je     401125 <initialize_target+0x122>
  4010f9:	48 89 e6             	mov    %rsp,%rsi
  4010fc:	e8 6f fb ff ff       	callq  400c70 <strcasecmp@plt>
  401101:	85 c0                	test   %eax,%eax
  401103:	74 1b                	je     401120 <initialize_target+0x11d>
  401105:	83 c3 01             	add    $0x1,%ebx
  401108:	eb dc                	jmp    4010e6 <initialize_target+0xe3>
  40110a:	48 8d 3d e7 1e 00 00 	lea    0x1ee7(%rip),%rdi        # 402ff8 <_IO_stdin_used+0xe8>
  401111:	e8 aa fb ff ff       	callq  400cc0 <puts@plt>
  401116:	bf 08 00 00 00       	mov    $0x8,%edi
  40111b:	e8 10 fd ff ff       	callq  400e30 <exit@plt>
  401120:	bd 01 00 00 00       	mov    $0x1,%ebp
  401125:	85 ed                	test   %ebp,%ebp
  401127:	74 3d                	je     401166 <initialize_target+0x163>
  401129:	48 8d bc 24 00 01 00 	lea    0x100(%rsp),%rdi
  401130:	00 
  401131:	e8 60 1a 00 00       	callq  402b96 <init_driver>
  401136:	85 c0                	test   %eax,%eax
  401138:	0f 89 5a ff ff ff    	jns    401098 <initialize_target+0x95>
  40113e:	48 8d 94 24 00 01 00 	lea    0x100(%rsp),%rdx
  401145:	00 
  401146:	48 8d 35 23 1f 00 00 	lea    0x1f23(%rip),%rsi        # 403070 <_IO_stdin_used+0x160>
  40114d:	bf 01 00 00 00       	mov    $0x1,%edi
  401152:	b8 00 00 00 00       	mov    $0x0,%eax
  401157:	e8 84 fc ff ff       	callq  400de0 <__printf_chk@plt>
  40115c:	bf 08 00 00 00       	mov    $0x8,%edi
  401161:	e8 ca fc ff ff       	callq  400e30 <exit@plt>
  401166:	48 89 e2             	mov    %rsp,%rdx
  401169:	48 8d 35 c0 1e 00 00 	lea    0x1ec0(%rip),%rsi        # 403030 <_IO_stdin_used+0x120>
  401170:	bf 01 00 00 00       	mov    $0x1,%edi
  401175:	b8 00 00 00 00       	mov    $0x0,%eax
  40117a:	e8 61 fc ff ff       	callq  400de0 <__printf_chk@plt>
  40117f:	bf 08 00 00 00       	mov    $0x8,%edi
  401184:	e8 a7 fc ff ff       	callq  400e30 <exit@plt>
  401189:	e8 52 fb ff ff       	callq  400ce0 <__stack_chk_fail@plt>

000000000040118e <main>:
  40118e:	41 56                	push   %r14
  401190:	41 55                	push   %r13
  401192:	41 54                	push   %r12
  401194:	55                   	push   %rbp
  401195:	53                   	push   %rbx
  401196:	41 89 fc             	mov    %edi,%r12d
  401199:	48 89 f3             	mov    %rsi,%rbx
  40119c:	48 c7 c6 9d 1e 40 00 	mov    $0x401e9d,%rsi
  4011a3:	bf 0b 00 00 00       	mov    $0xb,%edi
  4011a8:	e8 93 fb ff ff       	callq  400d40 <signal@plt>
  4011ad:	48 c7 c6 49 1e 40 00 	mov    $0x401e49,%rsi
  4011b4:	bf 07 00 00 00       	mov    $0x7,%edi
  4011b9:	e8 82 fb ff ff       	callq  400d40 <signal@plt>
  4011be:	48 c7 c6 f1 1e 40 00 	mov    $0x401ef1,%rsi
  4011c5:	bf 04 00 00 00       	mov    $0x4,%edi
  4011ca:	e8 71 fb ff ff       	callq  400d40 <signal@plt>
  4011cf:	83 3d 32 33 20 00 00 	cmpl   $0x0,0x203332(%rip)        # 604508 <is_checker>
  4011d6:	75 26                	jne    4011fe <main+0x70>
  4011d8:	48 8d 2d 56 1f 00 00 	lea    0x1f56(%rip),%rbp        # 403135 <_IO_stdin_used+0x225>
  4011df:	48 8b 05 ba 32 20 00 	mov    0x2032ba(%rip),%rax        # 6044a0 <stdin@@GLIBC_2.2.5>
  4011e6:	48 89 05 03 33 20 00 	mov    %rax,0x203303(%rip)        # 6044f0 <infile>
  4011ed:	41 bd 00 00 00 00    	mov    $0x0,%r13d
  4011f3:	41 be 00 00 00 00    	mov    $0x0,%r14d
  4011f9:	e9 8d 00 00 00       	jmpq   40128b <main+0xfd>
  4011fe:	48 c7 c6 45 1f 40 00 	mov    $0x401f45,%rsi
  401205:	bf 0e 00 00 00       	mov    $0xe,%edi
  40120a:	e8 31 fb ff ff       	callq  400d40 <signal@plt>
  40120f:	bf 05 00 00 00       	mov    $0x5,%edi
  401214:	e8 f7 fa ff ff       	callq  400d10 <alarm@plt>
  401219:	48 8d 2d 1a 1f 00 00 	lea    0x1f1a(%rip),%rbp        # 40313a <_IO_stdin_used+0x22a>
  401220:	eb bd                	jmp    4011df <main+0x51>
  401222:	48 8b 3b             	mov    (%rbx),%rdi
  401225:	e8 3d fd ff ff       	callq  400f67 <usage>
  40122a:	48 8d 35 93 21 00 00 	lea    0x2193(%rip),%rsi        # 4033c4 <_IO_stdin_used+0x4b4>
  401231:	48 8b 3d 70 32 20 00 	mov    0x203270(%rip),%rdi        # 6044a8 <optarg@@GLIBC_2.2.5>
  401238:	e8 b3 fb ff ff       	callq  400df0 <fopen@plt>
  40123d:	48 89 05 ac 32 20 00 	mov    %rax,0x2032ac(%rip)        # 6044f0 <infile>
  401244:	48 85 c0             	test   %rax,%rax
  401247:	75 42                	jne    40128b <main+0xfd>
  401249:	48 8b 0d 58 32 20 00 	mov    0x203258(%rip),%rcx        # 6044a8 <optarg@@GLIBC_2.2.5>
  401250:	48 8d 15 eb 1e 00 00 	lea    0x1eeb(%rip),%rdx        # 403142 <_IO_stdin_used+0x232>
  401257:	be 01 00 00 00       	mov    $0x1,%esi
  40125c:	48 8b 3d 5d 32 20 00 	mov    0x20325d(%rip),%rdi        # 6044c0 <stderr@@GLIBC_2.2.5>
  401263:	e8 e8 fb ff ff       	callq  400e50 <__fprintf_chk@plt>
  401268:	b8 01 00 00 00       	mov    $0x1,%eax
  40126d:	e9 d9 00 00 00       	jmpq   40134b <main+0x1bd>
  401272:	ba 10 00 00 00       	mov    $0x10,%edx
  401277:	be 00 00 00 00       	mov    $0x0,%esi
  40127c:	48 8b 3d 25 32 20 00 	mov    0x203225(%rip),%rdi        # 6044a8 <optarg@@GLIBC_2.2.5>
  401283:	e8 88 fb ff ff       	callq  400e10 <strtoul@plt>
  401288:	41 89 c6             	mov    %eax,%r14d
  40128b:	48 89 ea             	mov    %rbp,%rdx
  40128e:	48 89 de             	mov    %rbx,%rsi
  401291:	44 89 e7             	mov    %r12d,%edi
  401294:	e8 67 fb ff ff       	callq  400e00 <getopt@plt>
  401299:	3c ff                	cmp    $0xff,%al
  40129b:	74 62                	je     4012ff <main+0x171>
  40129d:	0f be d0             	movsbl %al,%edx
  4012a0:	83 e8 61             	sub    $0x61,%eax
  4012a3:	3c 10                	cmp    $0x10,%al
  4012a5:	77 3a                	ja     4012e1 <main+0x153>
  4012a7:	0f b6 c0             	movzbl %al,%eax
  4012aa:	48 8d 0d cf 1e 00 00 	lea    0x1ecf(%rip),%rcx        # 403180 <_IO_stdin_used+0x270>
  4012b1:	48 63 04 81          	movslq (%rcx,%rax,4),%rax
  4012b5:	48 01 c8             	add    %rcx,%rax
  4012b8:	ff e0                	jmpq   *%rax
  4012ba:	ba 0a 00 00 00       	mov    $0xa,%edx
  4012bf:	be 00 00 00 00       	mov    $0x0,%esi
  4012c4:	48 8b 3d dd 31 20 00 	mov    0x2031dd(%rip),%rdi        # 6044a8 <optarg@@GLIBC_2.2.5>
  4012cb:	e8 a0 fa ff ff       	callq  400d70 <strtol@plt>
  4012d0:	41 89 c5             	mov    %eax,%r13d
  4012d3:	eb b6                	jmp    40128b <main+0xfd>
  4012d5:	c7 05 a9 31 20 00 00 	movl   $0x0,0x2031a9(%rip)        # 604488 <notify>
  4012dc:	00 00 00 
  4012df:	eb aa                	jmp    40128b <main+0xfd>
  4012e1:	48 8d 35 77 1e 00 00 	lea    0x1e77(%rip),%rsi        # 40315f <_IO_stdin_used+0x24f>
  4012e8:	bf 01 00 00 00       	mov    $0x1,%edi
  4012ed:	b8 00 00 00 00       	mov    $0x0,%eax
  4012f2:	e8 e9 fa ff ff       	callq  400de0 <__printf_chk@plt>
  4012f7:	48 8b 3b             	mov    (%rbx),%rdi
  4012fa:	e8 68 fc ff ff       	callq  400f67 <usage>
  4012ff:	be 00 00 00 00       	mov    $0x0,%esi
  401304:	44 89 ef             	mov    %r13d,%edi
  401307:	e8 f7 fc ff ff       	callq  401003 <initialize_target>
  40130c:	83 3d f5 31 20 00 00 	cmpl   $0x0,0x2031f5(%rip)        # 604508 <is_checker>
  401313:	74 09                	je     40131e <main+0x190>
  401315:	44 39 35 e4 31 20 00 	cmp    %r14d,0x2031e4(%rip)        # 604500 <authkey>
  40131c:	75 36                	jne    401354 <main+0x1c6>
  40131e:	8b 15 e0 31 20 00    	mov    0x2031e0(%rip),%edx        # 604504 <cookie>
  401324:	48 8d 35 47 1e 00 00 	lea    0x1e47(%rip),%rsi        # 403172 <_IO_stdin_used+0x262>
  40132b:	bf 01 00 00 00       	mov    $0x1,%edi
  401330:	b8 00 00 00 00       	mov    $0x0,%eax
  401335:	e8 a6 fa ff ff       	callq  400de0 <__printf_chk@plt>
  40133a:	48 8b 3d 3f 31 20 00 	mov    0x20313f(%rip),%rdi        # 604480 <buf_offset>
  401341:	e8 0b 0d 00 00       	callq  402051 <stable_launch>
  401346:	b8 00 00 00 00       	mov    $0x0,%eax
  40134b:	5b                   	pop    %rbx
  40134c:	5d                   	pop    %rbp
  40134d:	41 5c                	pop    %r12
  40134f:	41 5d                	pop    %r13
  401351:	41 5e                	pop    %r14
  401353:	c3                   	retq   
  401354:	44 89 f2             	mov    %r14d,%edx
  401357:	48 8d 35 3a 1d 00 00 	lea    0x1d3a(%rip),%rsi        # 403098 <_IO_stdin_used+0x188>
  40135e:	bf 01 00 00 00       	mov    $0x1,%edi
  401363:	b8 00 00 00 00       	mov    $0x0,%eax
  401368:	e8 73 fa ff ff       	callq  400de0 <__printf_chk@plt>
  40136d:	b8 00 00 00 00       	mov    $0x0,%eax
  401372:	e8 32 07 00 00       	callq  401aa9 <check_fail>
  401377:	eb a5                	jmp    40131e <main+0x190>

0000000000401379 <scramble>:
  401379:	48 83 ec 38          	sub    $0x38,%rsp
  40137d:	64 48 8b 04 25 28 00 	mov    %fs:0x28,%rax
  401384:	00 00 
  401386:	48 89 44 24 28       	mov    %rax,0x28(%rsp)
  40138b:	31 c0                	xor    %eax,%eax
  40138d:	eb 10                	jmp    40139f <scramble+0x26>
  40138f:	69 d0 d6 4b 00 00    	imul   $0x4bd6,%eax,%edx
  401395:	01 fa                	add    %edi,%edx
  401397:	89 c1                	mov    %eax,%ecx
  401399:	89 14 8c             	mov    %edx,(%rsp,%rcx,4)
  40139c:	83 c0 01             	add    $0x1,%eax
  40139f:	83 f8 09             	cmp    $0x9,%eax
  4013a2:	76 eb                	jbe    40138f <scramble+0x16>
  4013a4:	8b 44 24 0c          	mov    0xc(%rsp),%eax
  4013a8:	69 c0 ba 4b 00 00    	imul   $0x4bba,%eax,%eax
  4013ae:	89 44 24 0c          	mov    %eax,0xc(%rsp)
  4013b2:	8b 44 24 08          	mov    0x8(%rsp),%eax
  4013b6:	69 c0 82 18 00 00    	imul   $0x1882,%eax,%eax
  4013bc:	89 44 24 08          	mov    %eax,0x8(%rsp)
  4013c0:	8b 44 24 24          	mov    0x24(%rsp),%eax
  4013c4:	69 c0 c8 6e 00 00    	imul   $0x6ec8,%eax,%eax
  4013ca:	89 44 24 24          	mov    %eax,0x24(%rsp)
  4013ce:	8b 44 24 1c          	mov    0x1c(%rsp),%eax
  4013d2:	69 c0 12 ed 00 00    	imul   $0xed12,%eax,%eax
  4013d8:	89 44 24 1c          	mov    %eax,0x1c(%rsp)
  4013dc:	8b 44 24 14          	mov    0x14(%rsp),%eax
  4013e0:	69 c0 09 22 00 00    	imul   $0x2209,%eax,%eax
  4013e6:	89 44 24 14          	mov    %eax,0x14(%rsp)
  4013ea:	8b 44 24 20          	mov    0x20(%rsp),%eax
  4013ee:	69 c0 85 bf 00 00    	imul   $0xbf85,%eax,%eax
  4013f4:	89 44 24 20          	mov    %eax,0x20(%rsp)
  4013f8:	8b 44 24 10          	mov    0x10(%rsp),%eax
  4013fc:	69 c0 a1 b1 00 00    	imul   $0xb1a1,%eax,%eax
  401402:	89 44 24 10          	mov    %eax,0x10(%rsp)
  401406:	8b 44 24 14          	mov    0x14(%rsp),%eax
  40140a:	69 c0 e2 b0 00 00    	imul   $0xb0e2,%eax,%eax
  401410:	89 44 24 14          	mov    %eax,0x14(%rsp)
  401414:	8b 44 24 08          	mov    0x8(%rsp),%eax
  401418:	69 c0 4e 33 00 00    	imul   $0x334e,%eax,%eax
  40141e:	89 44 24 08          	mov    %eax,0x8(%rsp)
  401422:	8b 44 24 04          	mov    0x4(%rsp),%eax
  401426:	69 c0 f8 5b 00 00    	imul   $0x5bf8,%eax,%eax
  40142c:	89 44 24 04          	mov    %eax,0x4(%rsp)
  401430:	8b 44 24 08          	mov    0x8(%rsp),%eax
  401434:	69 c0 d9 5f 00 00    	imul   $0x5fd9,%eax,%eax
  40143a:	89 44 24 08          	mov    %eax,0x8(%rsp)
  40143e:	8b 04 24             	mov    (%rsp),%eax
  401441:	69 c0 49 5a 00 00    	imul   $0x5a49,%eax,%eax
  401447:	89 04 24             	mov    %eax,(%rsp)
  40144a:	8b 44 24 10          	mov    0x10(%rsp),%eax
  40144e:	69 c0 21 47 00 00    	imul   $0x4721,%eax,%eax
  401454:	89 44 24 10          	mov    %eax,0x10(%rsp)
  401458:	8b 44 24 0c          	mov    0xc(%rsp),%eax
  40145c:	69 c0 0a 90 00 00    	imul   $0x900a,%eax,%eax
  401462:	89 44 24 0c          	mov    %eax,0xc(%rsp)
  401466:	8b 44 24 14          	mov    0x14(%rsp),%eax
  40146a:	69 c0 30 b6 00 00    	imul   $0xb630,%eax,%eax
  401470:	89 44 24 14          	mov    %eax,0x14(%rsp)
  401474:	8b 44 24 18          	mov    0x18(%rsp),%eax
  401478:	69 c0 77 79 00 00    	imul   $0x7977,%eax,%eax
  40147e:	89 44 24 18          	mov    %eax,0x18(%rsp)
  401482:	8b 44 24 04          	mov    0x4(%rsp),%eax
  401486:	69 c0 f3 8a 00 00    	imul   $0x8af3,%eax,%eax
  40148c:	89 44 24 04          	mov    %eax,0x4(%rsp)
  401490:	8b 44 24 24          	mov    0x24(%rsp),%eax
  401494:	69 c0 26 0d 00 00    	imul   $0xd26,%eax,%eax
  40149a:	89 44 24 24          	mov    %eax,0x24(%rsp)
  40149e:	8b 44 24 20          	mov    0x20(%rsp),%eax
  4014a2:	69 c0 41 55 00 00    	imul   $0x5541,%eax,%eax
  4014a8:	89 44 24 20          	mov    %eax,0x20(%rsp)
  4014ac:	8b 44 24 20          	mov    0x20(%rsp),%eax
  4014b0:	69 c0 7e 14 00 00    	imul   $0x147e,%eax,%eax
  4014b6:	89 44 24 20          	mov    %eax,0x20(%rsp)
  4014ba:	8b 44 24 0c          	mov    0xc(%rsp),%eax
  4014be:	69 c0 7f 59 00 00    	imul   $0x597f,%eax,%eax
  4014c4:	89 44 24 0c          	mov    %eax,0xc(%rsp)
  4014c8:	8b 44 24 24          	mov    0x24(%rsp),%eax
  4014cc:	69 c0 5c 56 00 00    	imul   $0x565c,%eax,%eax
  4014d2:	89 44 24 24          	mov    %eax,0x24(%rsp)
  4014d6:	8b 44 24 10          	mov    0x10(%rsp),%eax
  4014da:	69 c0 ca f5 00 00    	imul   $0xf5ca,%eax,%eax
  4014e0:	89 44 24 10          	mov    %eax,0x10(%rsp)
  4014e4:	8b 44 24 20          	mov    0x20(%rsp),%eax
  4014e8:	69 c0 a8 8f 00 00    	imul   $0x8fa8,%eax,%eax
  4014ee:	89 44 24 20          	mov    %eax,0x20(%rsp)
  4014f2:	8b 44 24 04          	mov    0x4(%rsp),%eax
  4014f6:	69 c0 fc 4c 00 00    	imul   $0x4cfc,%eax,%eax
  4014fc:	89 44 24 04          	mov    %eax,0x4(%rsp)
  401500:	8b 44 24 08          	mov    0x8(%rsp),%eax
  401504:	69 c0 79 86 00 00    	imul   $0x8679,%eax,%eax
  40150a:	89 44 24 08          	mov    %eax,0x8(%rsp)
  40150e:	8b 44 24 10          	mov    0x10(%rsp),%eax
  401512:	69 c0 bf c5 00 00    	imul   $0xc5bf,%eax,%eax
  401518:	89 44 24 10          	mov    %eax,0x10(%rsp)
  40151c:	8b 44 24 08          	mov    0x8(%rsp),%eax
  401520:	69 c0 02 40 00 00    	imul   $0x4002,%eax,%eax
  401526:	89 44 24 08          	mov    %eax,0x8(%rsp)
  40152a:	8b 44 24 20          	mov    0x20(%rsp),%eax
  40152e:	69 c0 19 a2 00 00    	imul   $0xa219,%eax,%eax
  401534:	89 44 24 20          	mov    %eax,0x20(%rsp)
  401538:	8b 44 24 24          	mov    0x24(%rsp),%eax
  40153c:	69 c0 81 3a 00 00    	imul   $0x3a81,%eax,%eax
  401542:	89 44 24 24          	mov    %eax,0x24(%rsp)
  401546:	8b 44 24 08          	mov    0x8(%rsp),%eax
  40154a:	69 c0 58 5f 00 00    	imul   $0x5f58,%eax,%eax
  401550:	89 44 24 08          	mov    %eax,0x8(%rsp)
  401554:	8b 44 24 14          	mov    0x14(%rsp),%eax
  401558:	69 c0 33 5a 00 00    	imul   $0x5a33,%eax,%eax
  40155e:	89 44 24 14          	mov    %eax,0x14(%rsp)
  401562:	8b 44 24 18          	mov    0x18(%rsp),%eax
  401566:	69 c0 f2 45 00 00    	imul   $0x45f2,%eax,%eax
  40156c:	89 44 24 18          	mov    %eax,0x18(%rsp)
  401570:	8b 44 24 1c          	mov    0x1c(%rsp),%eax
  401574:	69 c0 06 e4 00 00    	imul   $0xe406,%eax,%eax
  40157a:	89 44 24 1c          	mov    %eax,0x1c(%rsp)
  40157e:	8b 44 24 08          	mov    0x8(%rsp),%eax
  401582:	69 c0 92 61 00 00    	imul   $0x6192,%eax,%eax
  401588:	89 44 24 08          	mov    %eax,0x8(%rsp)
  40158c:	8b 44 24 10          	mov    0x10(%rsp),%eax
  401590:	69 c0 7d 12 00 00    	imul   $0x127d,%eax,%eax
  401596:	89 44 24 10          	mov    %eax,0x10(%rsp)
  40159a:	8b 44 24 14          	mov    0x14(%rsp),%eax
  40159e:	69 c0 88 cc 00 00    	imul   $0xcc88,%eax,%eax
  4015a4:	89 44 24 14          	mov    %eax,0x14(%rsp)
  4015a8:	8b 44 24 18          	mov    0x18(%rsp),%eax
  4015ac:	69 c0 33 c6 00 00    	imul   $0xc633,%eax,%eax
  4015b2:	89 44 24 18          	mov    %eax,0x18(%rsp)
  4015b6:	8b 44 24 24          	mov    0x24(%rsp),%eax
  4015ba:	69 c0 17 70 00 00    	imul   $0x7017,%eax,%eax
  4015c0:	89 44 24 24          	mov    %eax,0x24(%rsp)
  4015c4:	8b 44 24 20          	mov    0x20(%rsp),%eax
  4015c8:	69 c0 6a eb 00 00    	imul   $0xeb6a,%eax,%eax
  4015ce:	89 44 24 20          	mov    %eax,0x20(%rsp)
  4015d2:	8b 44 24 1c          	mov    0x1c(%rsp),%eax
  4015d6:	69 c0 7c 41 00 00    	imul   $0x417c,%eax,%eax
  4015dc:	89 44 24 1c          	mov    %eax,0x1c(%rsp)
  4015e0:	8b 44 24 24          	mov    0x24(%rsp),%eax
  4015e4:	69 c0 ea 69 00 00    	imul   $0x69ea,%eax,%eax
  4015ea:	89 44 24 24          	mov    %eax,0x24(%rsp)
  4015ee:	8b 44 24 10          	mov    0x10(%rsp),%eax
  4015f2:	69 c0 a5 52 00 00    	imul   $0x52a5,%eax,%eax
  4015f8:	89 44 24 10          	mov    %eax,0x10(%rsp)
  4015fc:	8b 44 24 10          	mov    0x10(%rsp),%eax
  401600:	69 c0 1b 14 00 00    	imul   $0x141b,%eax,%eax
  401606:	89 44 24 10          	mov    %eax,0x10(%rsp)
  40160a:	8b 44 24 20          	mov    0x20(%rsp),%eax
  40160e:	69 c0 f8 79 00 00    	imul   $0x79f8,%eax,%eax
  401614:	89 44 24 20          	mov    %eax,0x20(%rsp)
  401618:	8b 44 24 20          	mov    0x20(%rsp),%eax
  40161c:	69 c0 07 4d 00 00    	imul   $0x4d07,%eax,%eax
  401622:	89 44 24 20          	mov    %eax,0x20(%rsp)
  401626:	8b 44 24 0c          	mov    0xc(%rsp),%eax
  40162a:	69 c0 95 02 00 00    	imul   $0x295,%eax,%eax
  401630:	89 44 24 0c          	mov    %eax,0xc(%rsp)
  401634:	8b 44 24 24          	mov    0x24(%rsp),%eax
  401638:	69 c0 9b c3 00 00    	imul   $0xc39b,%eax,%eax
  40163e:	89 44 24 24          	mov    %eax,0x24(%rsp)
  401642:	8b 44 24 24          	mov    0x24(%rsp),%eax
  401646:	69 c0 95 0e 00 00    	imul   $0xe95,%eax,%eax
  40164c:	89 44 24 24          	mov    %eax,0x24(%rsp)
  401650:	8b 44 24 1c          	mov    0x1c(%rsp),%eax
  401654:	69 c0 ba e3 00 00    	imul   $0xe3ba,%eax,%eax
  40165a:	89 44 24 1c          	mov    %eax,0x1c(%rsp)
  40165e:	8b 44 24 14          	mov    0x14(%rsp),%eax
  401662:	69 c0 26 a0 00 00    	imul   $0xa026,%eax,%eax
  401668:	89 44 24 14          	mov    %eax,0x14(%rsp)
  40166c:	8b 44 24 08          	mov    0x8(%rsp),%eax
  401670:	69 c0 39 2b 00 00    	imul   $0x2b39,%eax,%eax
  401676:	89 44 24 08          	mov    %eax,0x8(%rsp)
  40167a:	8b 44 24 18          	mov    0x18(%rsp),%eax
  40167e:	69 c0 10 5f 00 00    	imul   $0x5f10,%eax,%eax
  401684:	89 44 24 18          	mov    %eax,0x18(%rsp)
  401688:	8b 44 24 0c          	mov    0xc(%rsp),%eax
  40168c:	69 c0 00 2f 00 00    	imul   $0x2f00,%eax,%eax
  401692:	89 44 24 0c          	mov    %eax,0xc(%rsp)
  401696:	8b 44 24 18          	mov    0x18(%rsp),%eax
  40169a:	69 c0 48 47 00 00    	imul   $0x4748,%eax,%eax
  4016a0:	89 44 24 18          	mov    %eax,0x18(%rsp)
  4016a4:	8b 04 24             	mov    (%rsp),%eax
  4016a7:	69 c0 3b 8c 00 00    	imul   $0x8c3b,%eax,%eax
  4016ad:	89 04 24             	mov    %eax,(%rsp)
  4016b0:	8b 44 24 0c          	mov    0xc(%rsp),%eax
  4016b4:	69 c0 4d 8c 00 00    	imul   $0x8c4d,%eax,%eax
  4016ba:	89 44 24 0c          	mov    %eax,0xc(%rsp)
  4016be:	8b 44 24 18          	mov    0x18(%rsp),%eax
  4016c2:	8d 14 c0             	lea    (%rax,%rax,8),%edx
  4016c5:	89 d0                	mov    %edx,%eax
  4016c7:	c1 e0 0c             	shl    $0xc,%eax
  4016ca:	89 44 24 18          	mov    %eax,0x18(%rsp)
  4016ce:	8b 44 24 14          	mov    0x14(%rsp),%eax
  4016d2:	69 c0 11 a0 00 00    	imul   $0xa011,%eax,%eax
  4016d8:	89 44 24 14          	mov    %eax,0x14(%rsp)
  4016dc:	8b 44 24 08          	mov    0x8(%rsp),%eax
  4016e0:	69 c0 b1 d3 00 00    	imul   $0xd3b1,%eax,%eax
  4016e6:	89 44 24 08          	mov    %eax,0x8(%rsp)
  4016ea:	8b 44 24 20          	mov    0x20(%rsp),%eax
  4016ee:	69 c0 b8 f2 00 00    	imul   $0xf2b8,%eax,%eax
  4016f4:	89 44 24 20          	mov    %eax,0x20(%rsp)
  4016f8:	8b 44 24 24          	mov    0x24(%rsp),%eax
  4016fc:	69 c0 5a f3 00 00    	imul   $0xf35a,%eax,%eax
  401702:	89 44 24 24          	mov    %eax,0x24(%rsp)
  401706:	8b 44 24 18          	mov    0x18(%rsp),%eax
  40170a:	69 c0 f3 c7 00 00    	imul   $0xc7f3,%eax,%eax
  401710:	89 44 24 18          	mov    %eax,0x18(%rsp)
  401714:	8b 44 24 08          	mov    0x8(%rsp),%eax
  401718:	69 c0 d4 3d 00 00    	imul   $0x3dd4,%eax,%eax
  40171e:	89 44 24 08          	mov    %eax,0x8(%rsp)
  401722:	8b 44 24 20          	mov    0x20(%rsp),%eax
  401726:	69 c0 97 5e 00 00    	imul   $0x5e97,%eax,%eax
  40172c:	89 44 24 20          	mov    %eax,0x20(%rsp)
  401730:	8b 44 24 0c          	mov    0xc(%rsp),%eax
  401734:	69 c0 b0 46 00 00    	imul   $0x46b0,%eax,%eax
  40173a:	89 44 24 0c          	mov    %eax,0xc(%rsp)
  40173e:	8b 44 24 14          	mov    0x14(%rsp),%eax
  401742:	69 c0 c5 17 00 00    	imul   $0x17c5,%eax,%eax
  401748:	89 44 24 14          	mov    %eax,0x14(%rsp)
  40174c:	8b 44 24 14          	mov    0x14(%rsp),%eax
  401750:	69 c0 6b 6b 00 00    	imul   $0x6b6b,%eax,%eax
  401756:	89 44 24 14          	mov    %eax,0x14(%rsp)
  40175a:	8b 44 24 1c          	mov    0x1c(%rsp),%eax
  40175e:	69 c0 56 63 00 00    	imul   $0x6356,%eax,%eax
  401764:	89 44 24 1c          	mov    %eax,0x1c(%rsp)
  401768:	8b 44 24 08          	mov    0x8(%rsp),%eax
  40176c:	69 c0 fc 45 00 00    	imul   $0x45fc,%eax,%eax
  401772:	89 44 24 08          	mov    %eax,0x8(%rsp)
  401776:	8b 44 24 08          	mov    0x8(%rsp),%eax
  40177a:	69 c0 d5 b4 00 00    	imul   $0xb4d5,%eax,%eax
  401780:	89 44 24 08          	mov    %eax,0x8(%rsp)
  401784:	8b 04 24             	mov    (%rsp),%eax
  401787:	69 c0 62 33 00 00    	imul   $0x3362,%eax,%eax
  40178d:	89 04 24             	mov    %eax,(%rsp)
  401790:	8b 44 24 18          	mov    0x18(%rsp),%eax
  401794:	69 c0 5d c8 00 00    	imul   $0xc85d,%eax,%eax
  40179a:	89 44 24 18          	mov    %eax,0x18(%rsp)
  40179e:	8b 44 24 1c          	mov    0x1c(%rsp),%eax
  4017a2:	69 c0 15 20 00 00    	imul   $0x2015,%eax,%eax
  4017a8:	89 44 24 1c          	mov    %eax,0x1c(%rsp)
  4017ac:	8b 44 24 08          	mov    0x8(%rsp),%eax
  4017b0:	69 c0 7e 67 00 00    	imul   $0x677e,%eax,%eax
  4017b6:	89 44 24 08          	mov    %eax,0x8(%rsp)
  4017ba:	8b 04 24             	mov    (%rsp),%eax
  4017bd:	69 c0 79 82 00 00    	imul   $0x8279,%eax,%eax
  4017c3:	89 04 24             	mov    %eax,(%rsp)
  4017c6:	8b 44 24 0c          	mov    0xc(%rsp),%eax
  4017ca:	69 c0 7e 14 00 00    	imul   $0x147e,%eax,%eax
  4017d0:	89 44 24 0c          	mov    %eax,0xc(%rsp)
  4017d4:	8b 44 24 08          	mov    0x8(%rsp),%eax
  4017d8:	69 c0 83 4f 00 00    	imul   $0x4f83,%eax,%eax
  4017de:	89 44 24 08          	mov    %eax,0x8(%rsp)
  4017e2:	8b 44 24 24          	mov    0x24(%rsp),%eax
  4017e6:	69 c0 c9 2c 00 00    	imul   $0x2cc9,%eax,%eax
  4017ec:	89 44 24 24          	mov    %eax,0x24(%rsp)
  4017f0:	8b 44 24 04          	mov    0x4(%rsp),%eax
  4017f4:	69 c0 fa b2 00 00    	imul   $0xb2fa,%eax,%eax
  4017fa:	89 44 24 04          	mov    %eax,0x4(%rsp)
  4017fe:	ba 00 00 00 00       	mov    $0x0,%edx
  401803:	b8 00 00 00 00       	mov    $0x0,%eax
  401808:	eb 0a                	jmp    401814 <scramble+0x49b>
  40180a:	89 d1                	mov    %edx,%ecx
  40180c:	8b 0c 8c             	mov    (%rsp,%rcx,4),%ecx
  40180f:	01 c8                	add    %ecx,%eax
  401811:	83 c2 01             	add    $0x1,%edx
  401814:	83 fa 09             	cmp    $0x9,%edx
  401817:	76 f1                	jbe    40180a <scramble+0x491>
  401819:	48 8b 74 24 28       	mov    0x28(%rsp),%rsi
  40181e:	64 48 33 34 25 28 00 	xor    %fs:0x28,%rsi
  401825:	00 00 
  401827:	75 05                	jne    40182e <scramble+0x4b5>
  401829:	48 83 c4 38          	add    $0x38,%rsp
  40182d:	c3                   	retq   
  40182e:	e8 ad f4 ff ff       	callq  400ce0 <__stack_chk_fail@plt>

0000000000401833 <getbuf>:
  401833:	48 83 ec 28          	sub    $0x28,%rsp
  401837:	48 89 e7             	mov    %rsp,%rdi
  40183a:	e8 a2 02 00 00       	callq  401ae1 <Gets>
  40183f:	b8 01 00 00 00       	mov    $0x1,%eax
  401844:	48 83 c4 28          	add    $0x28,%rsp
  401848:	c3                   	retq   

0000000000401849 <touch1>:
  401849:	48 83 ec 08          	sub    $0x8,%rsp
  40184d:	c7 05 a5 2c 20 00 01 	movl   $0x1,0x202ca5(%rip)        # 6044fc <vlevel>
  401854:	00 00 00 
  401857:	48 8d 3d ab 19 00 00 	lea    0x19ab(%rip),%rdi        # 403209 <_IO_stdin_used+0x2f9>
  40185e:	e8 5d f4 ff ff       	callq  400cc0 <puts@plt>
  401863:	bf 01 00 00 00       	mov    $0x1,%edi
  401868:	e8 e4 04 00 00       	callq  401d51 <validate>
  40186d:	bf 00 00 00 00       	mov    $0x0,%edi
  401872:	e8 b9 f5 ff ff       	callq  400e30 <exit@plt>

0000000000401877 <touch2>:
  401877:	48 83 ec 08          	sub    $0x8,%rsp
  40187b:	89 fa                	mov    %edi,%edx
  40187d:	c7 05 75 2c 20 00 02 	movl   $0x2,0x202c75(%rip)        # 6044fc <vlevel>
  401884:	00 00 00 
  401887:	39 3d 77 2c 20 00    	cmp    %edi,0x202c77(%rip)        # 604504 <cookie>
  40188d:	74 2a                	je     4018b9 <touch2+0x42>
  40188f:	48 8d 35 c2 19 00 00 	lea    0x19c2(%rip),%rsi        # 403258 <_IO_stdin_used+0x348>
  401896:	bf 01 00 00 00       	mov    $0x1,%edi
  40189b:	b8 00 00 00 00       	mov    $0x0,%eax
  4018a0:	e8 3b f5 ff ff       	callq  400de0 <__printf_chk@plt>
  4018a5:	bf 02 00 00 00       	mov    $0x2,%edi
  4018aa:	e8 72 05 00 00       	callq  401e21 <fail>
  4018af:	bf 00 00 00 00       	mov    $0x0,%edi
  4018b4:	e8 77 f5 ff ff       	callq  400e30 <exit@plt>
  4018b9:	48 8d 35 70 19 00 00 	lea    0x1970(%rip),%rsi        # 403230 <_IO_stdin_used+0x320>
  4018c0:	bf 01 00 00 00       	mov    $0x1,%edi
  4018c5:	b8 00 00 00 00       	mov    $0x0,%eax
  4018ca:	e8 11 f5 ff ff       	callq  400de0 <__printf_chk@plt>
  4018cf:	bf 02 00 00 00       	mov    $0x2,%edi
  4018d4:	e8 78 04 00 00       	callq  401d51 <validate>
  4018d9:	eb d4                	jmp    4018af <touch2+0x38>

00000000004018db <hexmatch>:
  4018db:	41 54                	push   %r12
  4018dd:	55                   	push   %rbp
  4018de:	53                   	push   %rbx
  4018df:	48 83 c4 80          	add    $0xffffffffffffff80,%rsp
  4018e3:	89 fd                	mov    %edi,%ebp
  4018e5:	48 89 f3             	mov    %rsi,%rbx
  4018e8:	64 48 8b 04 25 28 00 	mov    %fs:0x28,%rax
  4018ef:	00 00 
  4018f1:	48 89 44 24 78       	mov    %rax,0x78(%rsp)
  4018f6:	31 c0                	xor    %eax,%eax
  4018f8:	e8 a3 f4 ff ff       	callq  400da0 <random@plt>
  4018fd:	48 89 c1             	mov    %rax,%rcx
  401900:	48 ba 0b d7 a3 70 3d 	movabs $0xa3d70a3d70a3d70b,%rdx
  401907:	0a d7 a3 
  40190a:	48 f7 ea             	imul   %rdx
  40190d:	48 01 ca             	add    %rcx,%rdx
  401910:	48 c1 fa 06          	sar    $0x6,%rdx
  401914:	48 89 c8             	mov    %rcx,%rax
  401917:	48 c1 f8 3f          	sar    $0x3f,%rax
  40191b:	48 29 c2             	sub    %rax,%rdx
  40191e:	48 8d 04 92          	lea    (%rdx,%rdx,4),%rax
  401922:	48 8d 14 80          	lea    (%rax,%rax,4),%rdx
  401926:	48 8d 04 95 00 00 00 	lea    0x0(,%rdx,4),%rax
  40192d:	00 
  40192e:	48 29 c1             	sub    %rax,%rcx
  401931:	4c 8d 24 0c          	lea    (%rsp,%rcx,1),%r12
  401935:	41 89 e8             	mov    %ebp,%r8d
  401938:	48 8d 0d e7 18 00 00 	lea    0x18e7(%rip),%rcx        # 403226 <_IO_stdin_used+0x316>
  40193f:	48 c7 c2 ff ff ff ff 	mov    $0xffffffffffffffff,%rdx
  401946:	be 01 00 00 00       	mov    $0x1,%esi
  40194b:	4c 89 e7             	mov    %r12,%rdi
  40194e:	b8 00 00 00 00       	mov    $0x0,%eax
  401953:	e8 08 f5 ff ff       	callq  400e60 <__sprintf_chk@plt>
  401958:	ba 09 00 00 00       	mov    $0x9,%edx
  40195d:	4c 89 e6             	mov    %r12,%rsi
  401960:	48 89 df             	mov    %rbx,%rdi
  401963:	e8 38 f3 ff ff       	callq  400ca0 <strncmp@plt>
  401968:	85 c0                	test   %eax,%eax
  40196a:	0f 94 c0             	sete   %al
  40196d:	48 8b 5c 24 78       	mov    0x78(%rsp),%rbx
  401972:	64 48 33 1c 25 28 00 	xor    %fs:0x28,%rbx
  401979:	00 00 
  40197b:	75 0c                	jne    401989 <hexmatch+0xae>
  40197d:	0f b6 c0             	movzbl %al,%eax
  401980:	48 83 ec 80          	sub    $0xffffffffffffff80,%rsp
  401984:	5b                   	pop    %rbx
  401985:	5d                   	pop    %rbp
  401986:	41 5c                	pop    %r12
  401988:	c3                   	retq   
  401989:	e8 52 f3 ff ff       	callq  400ce0 <__stack_chk_fail@plt>

000000000040198e <touch3>:
  40198e:	53                   	push   %rbx
  40198f:	48 89 fb             	mov    %rdi,%rbx
  401992:	c7 05 60 2b 20 00 03 	movl   $0x3,0x202b60(%rip)        # 6044fc <vlevel>
  401999:	00 00 00 
  40199c:	48 89 fe             	mov    %rdi,%rsi
  40199f:	8b 3d 5f 2b 20 00    	mov    0x202b5f(%rip),%edi        # 604504 <cookie>
  4019a5:	e8 31 ff ff ff       	callq  4018db <hexmatch>
  4019aa:	85 c0                	test   %eax,%eax
  4019ac:	74 0b                	je     4019b9 <touch3+0x2b>
  4019ae:	8b 4b 0c             	mov    0xc(%rbx),%ecx
  4019b1:	3b 0d 4d 2b 20 00    	cmp    0x202b4d(%rip),%ecx        # 604504 <cookie>
  4019b7:	74 30                	je     4019e9 <touch3+0x5b>
  4019b9:	8b 4b 0c             	mov    0xc(%rbx),%ecx
  4019bc:	48 89 da             	mov    %rbx,%rdx
  4019bf:	48 8d 35 ea 18 00 00 	lea    0x18ea(%rip),%rsi        # 4032b0 <_IO_stdin_used+0x3a0>
  4019c6:	bf 01 00 00 00       	mov    $0x1,%edi
  4019cb:	b8 00 00 00 00       	mov    $0x0,%eax
  4019d0:	e8 0b f4 ff ff       	callq  400de0 <__printf_chk@plt>
  4019d5:	bf 03 00 00 00       	mov    $0x3,%edi
  4019da:	e8 42 04 00 00       	callq  401e21 <fail>
  4019df:	bf 00 00 00 00       	mov    $0x0,%edi
  4019e4:	e8 47 f4 ff ff       	callq  400e30 <exit@plt>
  4019e9:	48 89 da             	mov    %rbx,%rdx
  4019ec:	48 8d 35 8d 18 00 00 	lea    0x188d(%rip),%rsi        # 403280 <_IO_stdin_used+0x370>
  4019f3:	bf 01 00 00 00       	mov    $0x1,%edi
  4019f8:	b8 00 00 00 00       	mov    $0x0,%eax
  4019fd:	e8 de f3 ff ff       	callq  400de0 <__printf_chk@plt>
  401a02:	bf 03 00 00 00       	mov    $0x3,%edi
  401a07:	e8 45 03 00 00       	callq  401d51 <validate>
  401a0c:	eb d1                	jmp    4019df <touch3+0x51>

0000000000401a0e <test>:
  401a0e:	48 83 ec 08          	sub    $0x8,%rsp
  401a12:	b8 00 00 00 00       	mov    $0x0,%eax
  401a17:	e8 17 fe ff ff       	callq  401833 <getbuf>
  401a1c:	89 c2                	mov    %eax,%edx
  401a1e:	48 8d 35 bb 18 00 00 	lea    0x18bb(%rip),%rsi        # 4032e0 <_IO_stdin_used+0x3d0>
  401a25:	bf 01 00 00 00       	mov    $0x1,%edi
  401a2a:	b8 00 00 00 00       	mov    $0x0,%eax
  401a2f:	e8 ac f3 ff ff       	callq  400de0 <__printf_chk@plt>
  401a34:	48 83 c4 08          	add    $0x8,%rsp
  401a38:	c3                   	retq   

0000000000401a39 <save_char>:
  401a39:	8b 05 e5 36 20 00    	mov    0x2036e5(%rip),%eax        # 605124 <gets_cnt>
  401a3f:	3d ff 03 00 00       	cmp    $0x3ff,%eax
  401a44:	7f 4a                	jg     401a90 <save_char+0x57>
  401a46:	89 f9                	mov    %edi,%ecx
  401a48:	c0 e9 04             	shr    $0x4,%cl
  401a4b:	8d 14 40             	lea    (%rax,%rax,2),%edx
  401a4e:	4c 8d 05 ab 1b 00 00 	lea    0x1bab(%rip),%r8        # 403600 <trans_char>
  401a55:	83 e1 0f             	and    $0xf,%ecx
  401a58:	45 0f b6 0c 08       	movzbl (%r8,%rcx,1),%r9d
  401a5d:	48 8d 0d bc 2a 20 00 	lea    0x202abc(%rip),%rcx        # 604520 <gets_buf>
  401a64:	48 63 f2             	movslq %edx,%rsi
  401a67:	44 88 0c 31          	mov    %r9b,(%rcx,%rsi,1)
  401a6b:	8d 72 01             	lea    0x1(%rdx),%esi
  401a6e:	83 e7 0f             	and    $0xf,%edi
  401a71:	41 0f b6 3c 38       	movzbl (%r8,%rdi,1),%edi
  401a76:	48 63 f6             	movslq %esi,%rsi
  401a79:	40 88 3c 31          	mov    %dil,(%rcx,%rsi,1)
  401a7d:	83 c2 02             	add    $0x2,%edx
  401a80:	48 63 d2             	movslq %edx,%rdx
  401a83:	c6 04 11 20          	movb   $0x20,(%rcx,%rdx,1)
  401a87:	83 c0 01             	add    $0x1,%eax
  401a8a:	89 05 94 36 20 00    	mov    %eax,0x203694(%rip)        # 605124 <gets_cnt>
  401a90:	f3 c3                	repz retq 

0000000000401a92 <save_term>:
  401a92:	8b 05 8c 36 20 00    	mov    0x20368c(%rip),%eax        # 605124 <gets_cnt>
  401a98:	8d 04 40             	lea    (%rax,%rax,2),%eax
  401a9b:	48 98                	cltq   
  401a9d:	48 8d 15 7c 2a 20 00 	lea    0x202a7c(%rip),%rdx        # 604520 <gets_buf>
  401aa4:	c6 04 02 00          	movb   $0x0,(%rdx,%rax,1)
  401aa8:	c3                   	retq   

0000000000401aa9 <check_fail>:
  401aa9:	48 83 ec 08          	sub    $0x8,%rsp
  401aad:	0f be 15 74 36 20 00 	movsbl 0x203674(%rip),%edx        # 605128 <target_prefix>
  401ab4:	4c 8d 05 65 2a 20 00 	lea    0x202a65(%rip),%r8        # 604520 <gets_buf>
  401abb:	8b 0d 37 2a 20 00    	mov    0x202a37(%rip),%ecx        # 6044f8 <check_level>
  401ac1:	48 8d 35 3a 18 00 00 	lea    0x183a(%rip),%rsi        # 403302 <_IO_stdin_used+0x3f2>
  401ac8:	bf 01 00 00 00       	mov    $0x1,%edi
  401acd:	b8 00 00 00 00       	mov    $0x0,%eax
  401ad2:	e8 09 f3 ff ff       	callq  400de0 <__printf_chk@plt>
  401ad7:	bf 01 00 00 00       	mov    $0x1,%edi
  401adc:	e8 4f f3 ff ff       	callq  400e30 <exit@plt>

0000000000401ae1 <Gets>:
  401ae1:	41 54                	push   %r12
  401ae3:	55                   	push   %rbp
  401ae4:	53                   	push   %rbx
  401ae5:	49 89 fc             	mov    %rdi,%r12
  401ae8:	c7 05 32 36 20 00 00 	movl   $0x0,0x203632(%rip)        # 605124 <gets_cnt>
  401aef:	00 00 00 
  401af2:	48 89 fb             	mov    %rdi,%rbx
  401af5:	eb 11                	jmp    401b08 <Gets+0x27>
  401af7:	48 8d 6b 01          	lea    0x1(%rbx),%rbp
  401afb:	88 03                	mov    %al,(%rbx)
  401afd:	0f b6 f8             	movzbl %al,%edi
  401b00:	e8 34 ff ff ff       	callq  401a39 <save_char>
  401b05:	48 89 eb             	mov    %rbp,%rbx
  401b08:	48 8b 3d e1 29 20 00 	mov    0x2029e1(%rip),%rdi        # 6044f0 <infile>
  401b0f:	e8 9c f2 ff ff       	callq  400db0 <_IO_getc@plt>
  401b14:	83 f8 ff             	cmp    $0xffffffff,%eax
  401b17:	74 05                	je     401b1e <Gets+0x3d>
  401b19:	83 f8 0a             	cmp    $0xa,%eax
  401b1c:	75 d9                	jne    401af7 <Gets+0x16>
  401b1e:	c6 03 00             	movb   $0x0,(%rbx)
  401b21:	b8 00 00 00 00       	mov    $0x0,%eax
  401b26:	e8 67 ff ff ff       	callq  401a92 <save_term>
  401b2b:	4c 89 e0             	mov    %r12,%rax
  401b2e:	5b                   	pop    %rbx
  401b2f:	5d                   	pop    %rbp
  401b30:	41 5c                	pop    %r12
  401b32:	c3                   	retq   

0000000000401b33 <notify_server>:
  401b33:	55                   	push   %rbp
  401b34:	53                   	push   %rbx
  401b35:	48 81 ec 18 40 00 00 	sub    $0x4018,%rsp
  401b3c:	64 48 8b 04 25 28 00 	mov    %fs:0x28,%rax
  401b43:	00 00 
  401b45:	48 89 84 24 08 40 00 	mov    %rax,0x4008(%rsp)
  401b4c:	00 
  401b4d:	31 c0                	xor    %eax,%eax
  401b4f:	83 3d b2 29 20 00 00 	cmpl   $0x0,0x2029b2(%rip)        # 604508 <is_checker>
  401b56:	0f 85 d2 00 00 00    	jne    401c2e <notify_server+0xfb>
  401b5c:	89 fb                	mov    %edi,%ebx
  401b5e:	8b 05 c0 35 20 00    	mov    0x2035c0(%rip),%eax        # 605124 <gets_cnt>
  401b64:	83 c0 64             	add    $0x64,%eax
  401b67:	3d 00 20 00 00       	cmp    $0x2000,%eax
  401b6c:	0f 8f dd 00 00 00    	jg     401c4f <notify_server+0x11c>
  401b72:	0f be 05 af 35 20 00 	movsbl 0x2035af(%rip),%eax        # 605128 <target_prefix>
  401b79:	83 3d 08 29 20 00 00 	cmpl   $0x0,0x202908(%rip)        # 604488 <notify>
  401b80:	0f 84 e9 00 00 00    	je     401c6f <notify_server+0x13c>
  401b86:	8b 15 74 29 20 00    	mov    0x202974(%rip),%edx        # 604500 <authkey>
  401b8c:	85 db                	test   %ebx,%ebx
  401b8e:	0f 84 e5 00 00 00    	je     401c79 <notify_server+0x146>
  401b94:	48 8d 2d 7d 17 00 00 	lea    0x177d(%rip),%rbp        # 403318 <_IO_stdin_used+0x408>
  401b9b:	48 89 e7             	mov    %rsp,%rdi
  401b9e:	48 8d 0d 7b 29 20 00 	lea    0x20297b(%rip),%rcx        # 604520 <gets_buf>
  401ba5:	51                   	push   %rcx
  401ba6:	56                   	push   %rsi
  401ba7:	50                   	push   %rax
  401ba8:	52                   	push   %rdx
  401ba9:	49 89 e9             	mov    %rbp,%r9
  401bac:	44 8b 05 7d 25 20 00 	mov    0x20257d(%rip),%r8d        # 604130 <target_id>
  401bb3:	48 8d 0d 68 17 00 00 	lea    0x1768(%rip),%rcx        # 403322 <_IO_stdin_used+0x412>
  401bba:	ba 00 20 00 00       	mov    $0x2000,%edx
  401bbf:	be 01 00 00 00       	mov    $0x1,%esi
  401bc4:	b8 00 00 00 00       	mov    $0x0,%eax
  401bc9:	e8 92 f2 ff ff       	callq  400e60 <__sprintf_chk@plt>
  401bce:	48 83 c4 20          	add    $0x20,%rsp
  401bd2:	83 3d af 28 20 00 00 	cmpl   $0x0,0x2028af(%rip)        # 604488 <notify>
  401bd9:	0f 84 df 00 00 00    	je     401cbe <notify_server+0x18b>
  401bdf:	85 db                	test   %ebx,%ebx
  401be1:	0f 84 c6 00 00 00    	je     401cad <notify_server+0x17a>
  401be7:	48 89 e1             	mov    %rsp,%rcx
  401bea:	4c 8d 8c 24 00 20 00 	lea    0x2000(%rsp),%r9
  401bf1:	00 
  401bf2:	41 b8 00 00 00 00    	mov    $0x0,%r8d
  401bf8:	48 8b 15 49 25 20 00 	mov    0x202549(%rip),%rdx        # 604148 <lab>
  401bff:	48 8b 35 4a 25 20 00 	mov    0x20254a(%rip),%rsi        # 604150 <course>
  401c06:	48 8b 3d 33 25 20 00 	mov    0x202533(%rip),%rdi        # 604140 <user_id>
  401c0d:	e8 af 11 00 00       	callq  402dc1 <driver_post>
  401c12:	85 c0                	test   %eax,%eax
  401c14:	78 6f                	js     401c85 <notify_server+0x152>
  401c16:	48 8d 3d 4b 18 00 00 	lea    0x184b(%rip),%rdi        # 403468 <_IO_stdin_used+0x558>
  401c1d:	e8 9e f0 ff ff       	callq  400cc0 <puts@plt>
  401c22:	48 8d 3d 21 17 00 00 	lea    0x1721(%rip),%rdi        # 40334a <_IO_stdin_used+0x43a>
  401c29:	e8 92 f0 ff ff       	callq  400cc0 <puts@plt>
  401c2e:	48 8b 84 24 08 40 00 	mov    0x4008(%rsp),%rax
  401c35:	00 
  401c36:	64 48 33 04 25 28 00 	xor    %fs:0x28,%rax
  401c3d:	00 00 
  401c3f:	0f 85 07 01 00 00    	jne    401d4c <notify_server+0x219>
  401c45:	48 81 c4 18 40 00 00 	add    $0x4018,%rsp
  401c4c:	5b                   	pop    %rbx
  401c4d:	5d                   	pop    %rbp
  401c4e:	c3                   	retq   
  401c4f:	48 8d 35 e2 17 00 00 	lea    0x17e2(%rip),%rsi        # 403438 <_IO_stdin_used+0x528>
  401c56:	bf 01 00 00 00       	mov    $0x1,%edi
  401c5b:	b8 00 00 00 00       	mov    $0x0,%eax
  401c60:	e8 7b f1 ff ff       	callq  400de0 <__printf_chk@plt>
  401c65:	bf 01 00 00 00       	mov    $0x1,%edi
  401c6a:	e8 c1 f1 ff ff       	callq  400e30 <exit@plt>
  401c6f:	ba ff ff ff ff       	mov    $0xffffffff,%edx
  401c74:	e9 13 ff ff ff       	jmpq   401b8c <notify_server+0x59>
  401c79:	48 8d 2d 9d 16 00 00 	lea    0x169d(%rip),%rbp        # 40331d <_IO_stdin_used+0x40d>
  401c80:	e9 16 ff ff ff       	jmpq   401b9b <notify_server+0x68>
  401c85:	48 8d 94 24 00 20 00 	lea    0x2000(%rsp),%rdx
  401c8c:	00 
  401c8d:	48 8d 35 aa 16 00 00 	lea    0x16aa(%rip),%rsi        # 40333e <_IO_stdin_used+0x42e>
  401c94:	bf 01 00 00 00       	mov    $0x1,%edi
  401c99:	b8 00 00 00 00       	mov    $0x0,%eax
  401c9e:	e8 3d f1 ff ff       	callq  400de0 <__printf_chk@plt>
  401ca3:	bf 01 00 00 00       	mov    $0x1,%edi
  401ca8:	e8 83 f1 ff ff       	callq  400e30 <exit@plt>
  401cad:	48 8d 3d a0 16 00 00 	lea    0x16a0(%rip),%rdi        # 403354 <_IO_stdin_used+0x444>
  401cb4:	e8 07 f0 ff ff       	callq  400cc0 <puts@plt>
  401cb9:	e9 70 ff ff ff       	jmpq   401c2e <notify_server+0xfb>
  401cbe:	48 89 ea             	mov    %rbp,%rdx
  401cc1:	48 8d 35 d8 17 00 00 	lea    0x17d8(%rip),%rsi        # 4034a0 <_IO_stdin_used+0x590>
  401cc8:	bf 01 00 00 00       	mov    $0x1,%edi
  401ccd:	b8 00 00 00 00       	mov    $0x0,%eax
  401cd2:	e8 09 f1 ff ff       	callq  400de0 <__printf_chk@plt>
  401cd7:	48 8b 15 62 24 20 00 	mov    0x202462(%rip),%rdx        # 604140 <user_id>
  401cde:	48 8d 35 76 16 00 00 	lea    0x1676(%rip),%rsi        # 40335b <_IO_stdin_used+0x44b>
  401ce5:	bf 01 00 00 00       	mov    $0x1,%edi
  401cea:	b8 00 00 00 00       	mov    $0x0,%eax
  401cef:	e8 ec f0 ff ff       	callq  400de0 <__printf_chk@plt>
  401cf4:	48 8b 15 55 24 20 00 	mov    0x202455(%rip),%rdx        # 604150 <course>
  401cfb:	48 8d 35 66 16 00 00 	lea    0x1666(%rip),%rsi        # 403368 <_IO_stdin_used+0x458>
  401d02:	bf 01 00 00 00       	mov    $0x1,%edi
  401d07:	b8 00 00 00 00       	mov    $0x0,%eax
  401d0c:	e8 cf f0 ff ff       	callq  400de0 <__printf_chk@plt>
  401d11:	48 8b 15 30 24 20 00 	mov    0x202430(%rip),%rdx        # 604148 <lab>
  401d18:	48 8d 35 55 16 00 00 	lea    0x1655(%rip),%rsi        # 403374 <_IO_stdin_used+0x464>
  401d1f:	bf 01 00 00 00       	mov    $0x1,%edi
  401d24:	b8 00 00 00 00       	mov    $0x0,%eax
  401d29:	e8 b2 f0 ff ff       	callq  400de0 <__printf_chk@plt>
  401d2e:	48 89 e2             	mov    %rsp,%rdx
  401d31:	48 8d 35 45 16 00 00 	lea    0x1645(%rip),%rsi        # 40337d <_IO_stdin_used+0x46d>
  401d38:	bf 01 00 00 00       	mov    $0x1,%edi
  401d3d:	b8 00 00 00 00       	mov    $0x0,%eax
  401d42:	e8 99 f0 ff ff       	callq  400de0 <__printf_chk@plt>
  401d47:	e9 e2 fe ff ff       	jmpq   401c2e <notify_server+0xfb>
  401d4c:	e8 8f ef ff ff       	callq  400ce0 <__stack_chk_fail@plt>

0000000000401d51 <validate>:
  401d51:	53                   	push   %rbx
  401d52:	89 fb                	mov    %edi,%ebx
  401d54:	83 3d ad 27 20 00 00 	cmpl   $0x0,0x2027ad(%rip)        # 604508 <is_checker>
  401d5b:	74 72                	je     401dcf <validate+0x7e>
  401d5d:	39 3d 99 27 20 00    	cmp    %edi,0x202799(%rip)        # 6044fc <vlevel>
  401d63:	75 32                	jne    401d97 <validate+0x46>
  401d65:	8b 15 8d 27 20 00    	mov    0x20278d(%rip),%edx        # 6044f8 <check_level>
  401d6b:	39 fa                	cmp    %edi,%edx
  401d6d:	75 3e                	jne    401dad <validate+0x5c>
  401d6f:	0f be 15 b2 33 20 00 	movsbl 0x2033b2(%rip),%edx        # 605128 <target_prefix>
  401d76:	4c 8d 05 a3 27 20 00 	lea    0x2027a3(%rip),%r8        # 604520 <gets_buf>
  401d7d:	89 f9                	mov    %edi,%ecx
  401d7f:	48 8d 35 21 16 00 00 	lea    0x1621(%rip),%rsi        # 4033a7 <_IO_stdin_used+0x497>
  401d86:	bf 01 00 00 00       	mov    $0x1,%edi
  401d8b:	b8 00 00 00 00       	mov    $0x0,%eax
  401d90:	e8 4b f0 ff ff       	callq  400de0 <__printf_chk@plt>
  401d95:	5b                   	pop    %rbx
  401d96:	c3                   	retq   
  401d97:	48 8d 3d eb 15 00 00 	lea    0x15eb(%rip),%rdi        # 403389 <_IO_stdin_used+0x479>
  401d9e:	e8 1d ef ff ff       	callq  400cc0 <puts@plt>
  401da3:	b8 00 00 00 00       	mov    $0x0,%eax
  401da8:	e8 fc fc ff ff       	callq  401aa9 <check_fail>
  401dad:	89 f9                	mov    %edi,%ecx
  401daf:	48 8d 35 12 17 00 00 	lea    0x1712(%rip),%rsi        # 4034c8 <_IO_stdin_used+0x5b8>
  401db6:	bf 01 00 00 00       	mov    $0x1,%edi
  401dbb:	b8 00 00 00 00       	mov    $0x0,%eax
  401dc0:	e8 1b f0 ff ff       	callq  400de0 <__printf_chk@plt>
  401dc5:	b8 00 00 00 00       	mov    $0x0,%eax
  401dca:	e8 da fc ff ff       	callq  401aa9 <check_fail>
  401dcf:	39 3d 27 27 20 00    	cmp    %edi,0x202727(%rip)        # 6044fc <vlevel>
  401dd5:	74 1a                	je     401df1 <validate+0xa0>
  401dd7:	48 8d 3d ab 15 00 00 	lea    0x15ab(%rip),%rdi        # 403389 <_IO_stdin_used+0x479>
  401dde:	e8 dd ee ff ff       	callq  400cc0 <puts@plt>
  401de3:	89 de                	mov    %ebx,%esi
  401de5:	bf 00 00 00 00       	mov    $0x0,%edi
  401dea:	e8 44 fd ff ff       	callq  401b33 <notify_server>
  401def:	eb a4                	jmp    401d95 <validate+0x44>
  401df1:	0f be 0d 30 33 20 00 	movsbl 0x203330(%rip),%ecx        # 605128 <target_prefix>
  401df8:	89 fa                	mov    %edi,%edx
  401dfa:	48 8d 35 ef 16 00 00 	lea    0x16ef(%rip),%rsi        # 4034f0 <_IO_stdin_used+0x5e0>
  401e01:	bf 01 00 00 00       	mov    $0x1,%edi
  401e06:	b8 00 00 00 00       	mov    $0x0,%eax
  401e0b:	e8 d0 ef ff ff       	callq  400de0 <__printf_chk@plt>
  401e10:	89 de                	mov    %ebx,%esi
  401e12:	bf 01 00 00 00       	mov    $0x1,%edi
  401e17:	e8 17 fd ff ff       	callq  401b33 <notify_server>
  401e1c:	e9 74 ff ff ff       	jmpq   401d95 <validate+0x44>

0000000000401e21 <fail>:
  401e21:	48 83 ec 08          	sub    $0x8,%rsp
  401e25:	83 3d dc 26 20 00 00 	cmpl   $0x0,0x2026dc(%rip)        # 604508 <is_checker>
  401e2c:	75 11                	jne    401e3f <fail+0x1e>
  401e2e:	89 fe                	mov    %edi,%esi
  401e30:	bf 00 00 00 00       	mov    $0x0,%edi
  401e35:	e8 f9 fc ff ff       	callq  401b33 <notify_server>
  401e3a:	48 83 c4 08          	add    $0x8,%rsp
  401e3e:	c3                   	retq   
  401e3f:	b8 00 00 00 00       	mov    $0x0,%eax
  401e44:	e8 60 fc ff ff       	callq  401aa9 <check_fail>

0000000000401e49 <bushandler>:
  401e49:	48 83 ec 08          	sub    $0x8,%rsp
  401e4d:	83 3d b4 26 20 00 00 	cmpl   $0x0,0x2026b4(%rip)        # 604508 <is_checker>
  401e54:	74 16                	je     401e6c <bushandler+0x23>
  401e56:	48 8d 3d 5f 15 00 00 	lea    0x155f(%rip),%rdi        # 4033bc <_IO_stdin_used+0x4ac>
  401e5d:	e8 5e ee ff ff       	callq  400cc0 <puts@plt>
  401e62:	b8 00 00 00 00       	mov    $0x0,%eax
  401e67:	e8 3d fc ff ff       	callq  401aa9 <check_fail>
  401e6c:	48 8d 3d b5 16 00 00 	lea    0x16b5(%rip),%rdi        # 403528 <_IO_stdin_used+0x618>
  401e73:	e8 48 ee ff ff       	callq  400cc0 <puts@plt>
  401e78:	48 8d 3d 47 15 00 00 	lea    0x1547(%rip),%rdi        # 4033c6 <_IO_stdin_used+0x4b6>
  401e7f:	e8 3c ee ff ff       	callq  400cc0 <puts@plt>
  401e84:	be 00 00 00 00       	mov    $0x0,%esi
  401e89:	bf 00 00 00 00       	mov    $0x0,%edi
  401e8e:	e8 a0 fc ff ff       	callq  401b33 <notify_server>
  401e93:	bf 01 00 00 00       	mov    $0x1,%edi
  401e98:	e8 93 ef ff ff       	callq  400e30 <exit@plt>

0000000000401e9d <seghandler>:
  401e9d:	48 83 ec 08          	sub    $0x8,%rsp
  401ea1:	83 3d 60 26 20 00 00 	cmpl   $0x0,0x202660(%rip)        # 604508 <is_checker>
  401ea8:	74 16                	je     401ec0 <seghandler+0x23>
  401eaa:	48 8d 3d 2b 15 00 00 	lea    0x152b(%rip),%rdi        # 4033dc <_IO_stdin_used+0x4cc>
  401eb1:	e8 0a ee ff ff       	callq  400cc0 <puts@plt>
  401eb6:	b8 00 00 00 00       	mov    $0x0,%eax
  401ebb:	e8 e9 fb ff ff       	callq  401aa9 <check_fail>
  401ec0:	48 8d 3d 81 16 00 00 	lea    0x1681(%rip),%rdi        # 403548 <_IO_stdin_used+0x638>
  401ec7:	e8 f4 ed ff ff       	callq  400cc0 <puts@plt>
  401ecc:	48 8d 3d f3 14 00 00 	lea    0x14f3(%rip),%rdi        # 4033c6 <_IO_stdin_used+0x4b6>
  401ed3:	e8 e8 ed ff ff       	callq  400cc0 <puts@plt>
  401ed8:	be 00 00 00 00       	mov    $0x0,%esi
  401edd:	bf 00 00 00 00       	mov    $0x0,%edi
  401ee2:	e8 4c fc ff ff       	callq  401b33 <notify_server>
  401ee7:	bf 01 00 00 00       	mov    $0x1,%edi
  401eec:	e8 3f ef ff ff       	callq  400e30 <exit@plt>

0000000000401ef1 <illegalhandler>:
  401ef1:	48 83 ec 08          	sub    $0x8,%rsp
  401ef5:	83 3d 0c 26 20 00 00 	cmpl   $0x0,0x20260c(%rip)        # 604508 <is_checker>
  401efc:	74 16                	je     401f14 <illegalhandler+0x23>
  401efe:	48 8d 3d ea 14 00 00 	lea    0x14ea(%rip),%rdi        # 4033ef <_IO_stdin_used+0x4df>
  401f05:	e8 b6 ed ff ff       	callq  400cc0 <puts@plt>
  401f0a:	b8 00 00 00 00       	mov    $0x0,%eax
  401f0f:	e8 95 fb ff ff       	callq  401aa9 <check_fail>
  401f14:	48 8d 3d 55 16 00 00 	lea    0x1655(%rip),%rdi        # 403570 <_IO_stdin_used+0x660>
  401f1b:	e8 a0 ed ff ff       	callq  400cc0 <puts@plt>
  401f20:	48 8d 3d 9f 14 00 00 	lea    0x149f(%rip),%rdi        # 4033c6 <_IO_stdin_used+0x4b6>
  401f27:	e8 94 ed ff ff       	callq  400cc0 <puts@plt>
  401f2c:	be 00 00 00 00       	mov    $0x0,%esi
  401f31:	bf 00 00 00 00       	mov    $0x0,%edi
  401f36:	e8 f8 fb ff ff       	callq  401b33 <notify_server>
  401f3b:	bf 01 00 00 00       	mov    $0x1,%edi
  401f40:	e8 eb ee ff ff       	callq  400e30 <exit@plt>

0000000000401f45 <sigalrmhandler>:
  401f45:	48 83 ec 08          	sub    $0x8,%rsp
  401f49:	83 3d b8 25 20 00 00 	cmpl   $0x0,0x2025b8(%rip)        # 604508 <is_checker>
  401f50:	74 16                	je     401f68 <sigalrmhandler+0x23>
  401f52:	48 8d 3d aa 14 00 00 	lea    0x14aa(%rip),%rdi        # 403403 <_IO_stdin_used+0x4f3>
  401f59:	e8 62 ed ff ff       	callq  400cc0 <puts@plt>
  401f5e:	b8 00 00 00 00       	mov    $0x0,%eax
  401f63:	e8 41 fb ff ff       	callq  401aa9 <check_fail>
  401f68:	ba 05 00 00 00       	mov    $0x5,%edx
  401f6d:	48 8d 35 2c 16 00 00 	lea    0x162c(%rip),%rsi        # 4035a0 <_IO_stdin_used+0x690>
  401f74:	bf 01 00 00 00       	mov    $0x1,%edi
  401f79:	b8 00 00 00 00       	mov    $0x0,%eax
  401f7e:	e8 5d ee ff ff       	callq  400de0 <__printf_chk@plt>
  401f83:	be 00 00 00 00       	mov    $0x0,%esi
  401f88:	bf 00 00 00 00       	mov    $0x0,%edi
  401f8d:	e8 a1 fb ff ff       	callq  401b33 <notify_server>
  401f92:	bf 01 00 00 00       	mov    $0x1,%edi
  401f97:	e8 94 ee ff ff       	callq  400e30 <exit@plt>

0000000000401f9c <launch>:
  401f9c:	55                   	push   %rbp
  401f9d:	48 89 e5             	mov    %rsp,%rbp
  401fa0:	48 83 ec 10          	sub    $0x10,%rsp
  401fa4:	48 89 fa             	mov    %rdi,%rdx
  401fa7:	64 48 8b 04 25 28 00 	mov    %fs:0x28,%rax
  401fae:	00 00 
  401fb0:	48 89 45 f8          	mov    %rax,-0x8(%rbp)
  401fb4:	31 c0                	xor    %eax,%eax
  401fb6:	48 8d 47 1e          	lea    0x1e(%rdi),%rax
  401fba:	48 83 e0 f0          	and    $0xfffffffffffffff0,%rax
  401fbe:	48 29 c4             	sub    %rax,%rsp
  401fc1:	48 8d 7c 24 0f       	lea    0xf(%rsp),%rdi
  401fc6:	48 83 e7 f0          	and    $0xfffffffffffffff0,%rdi
  401fca:	be f4 00 00 00       	mov    $0xf4,%esi
  401fcf:	e8 2c ed ff ff       	callq  400d00 <memset@plt>
  401fd4:	48 8b 05 c5 24 20 00 	mov    0x2024c5(%rip),%rax        # 6044a0 <stdin@@GLIBC_2.2.5>
  401fdb:	48 39 05 0e 25 20 00 	cmp    %rax,0x20250e(%rip)        # 6044f0 <infile>
  401fe2:	74 3a                	je     40201e <launch+0x82>
  401fe4:	c7 05 0e 25 20 00 00 	movl   $0x0,0x20250e(%rip)        # 6044fc <vlevel>
  401feb:	00 00 00 
  401fee:	b8 00 00 00 00       	mov    $0x0,%eax
  401ff3:	e8 16 fa ff ff       	callq  401a0e <test>
  401ff8:	83 3d 09 25 20 00 00 	cmpl   $0x0,0x202509(%rip)        # 604508 <is_checker>
  401fff:	75 35                	jne    402036 <launch+0x9a>
  402001:	48 8d 3d 1b 14 00 00 	lea    0x141b(%rip),%rdi        # 403423 <_IO_stdin_used+0x513>
  402008:	e8 b3 ec ff ff       	callq  400cc0 <puts@plt>
  40200d:	48 8b 45 f8          	mov    -0x8(%rbp),%rax
  402011:	64 48 33 04 25 28 00 	xor    %fs:0x28,%rax
  402018:	00 00 
  40201a:	75 30                	jne    40204c <launch+0xb0>
  40201c:	c9                   	leaveq 
  40201d:	c3                   	retq   
  40201e:	48 8d 35 e6 13 00 00 	lea    0x13e6(%rip),%rsi        # 40340b <_IO_stdin_used+0x4fb>
  402025:	bf 01 00 00 00       	mov    $0x1,%edi
  40202a:	b8 00 00 00 00       	mov    $0x0,%eax
  40202f:	e8 ac ed ff ff       	callq  400de0 <__printf_chk@plt>
  402034:	eb ae                	jmp    401fe4 <launch+0x48>
  402036:	48 8d 3d db 13 00 00 	lea    0x13db(%rip),%rdi        # 403418 <_IO_stdin_used+0x508>
  40203d:	e8 7e ec ff ff       	callq  400cc0 <puts@plt>
  402042:	b8 00 00 00 00       	mov    $0x0,%eax
  402047:	e8 5d fa ff ff       	callq  401aa9 <check_fail>
  40204c:	e8 8f ec ff ff       	callq  400ce0 <__stack_chk_fail@plt>

0000000000402051 <stable_launch>:
  402051:	53                   	push   %rbx
  402052:	48 89 3d 8f 24 20 00 	mov    %rdi,0x20248f(%rip)        # 6044e8 <global_offset>
  402059:	41 b9 00 00 00 00    	mov    $0x0,%r9d
  40205f:	41 b8 00 00 00 00    	mov    $0x0,%r8d
  402065:	b9 32 01 00 00       	mov    $0x132,%ecx
  40206a:	ba 07 00 00 00       	mov    $0x7,%edx
  40206f:	be 00 00 10 00       	mov    $0x100000,%esi
  402074:	bf 00 60 58 55       	mov    $0x55586000,%edi
  402079:	e8 72 ec ff ff       	callq  400cf0 <mmap@plt>
  40207e:	48 89 c3             	mov    %rax,%rbx
  402081:	48 3d 00 60 58 55    	cmp    $0x55586000,%rax
  402087:	75 43                	jne    4020cc <stable_launch+0x7b>
  402089:	48 8d 90 f8 ff 0f 00 	lea    0xffff8(%rax),%rdx
  402090:	48 89 15 99 30 20 00 	mov    %rdx,0x203099(%rip)        # 605130 <stack_top>
  402097:	48 89 e0             	mov    %rsp,%rax
  40209a:	48 89 d4             	mov    %rdx,%rsp
  40209d:	48 89 c2             	mov    %rax,%rdx
  4020a0:	48 89 15 39 24 20 00 	mov    %rdx,0x202439(%rip)        # 6044e0 <global_save_stack>
  4020a7:	48 8b 3d 3a 24 20 00 	mov    0x20243a(%rip),%rdi        # 6044e8 <global_offset>
  4020ae:	e8 e9 fe ff ff       	callq  401f9c <launch>
  4020b3:	48 8b 05 26 24 20 00 	mov    0x202426(%rip),%rax        # 6044e0 <global_save_stack>
  4020ba:	48 89 c4             	mov    %rax,%rsp
  4020bd:	be 00 00 10 00       	mov    $0x100000,%esi
  4020c2:	48 89 df             	mov    %rbx,%rdi
  4020c5:	e8 06 ed ff ff       	callq  400dd0 <munmap@plt>
  4020ca:	5b                   	pop    %rbx
  4020cb:	c3                   	retq   
  4020cc:	be 00 00 10 00       	mov    $0x100000,%esi
  4020d1:	48 89 c7             	mov    %rax,%rdi
  4020d4:	e8 f7 ec ff ff       	callq  400dd0 <munmap@plt>
  4020d9:	b9 00 60 58 55       	mov    $0x55586000,%ecx
  4020de:	48 8d 15 f3 14 00 00 	lea    0x14f3(%rip),%rdx        # 4035d8 <_IO_stdin_used+0x6c8>
  4020e5:	be 01 00 00 00       	mov    $0x1,%esi
  4020ea:	48 8b 3d cf 23 20 00 	mov    0x2023cf(%rip),%rdi        # 6044c0 <stderr@@GLIBC_2.2.5>
  4020f1:	b8 00 00 00 00       	mov    $0x0,%eax
  4020f6:	e8 55 ed ff ff       	callq  400e50 <__fprintf_chk@plt>
  4020fb:	bf 01 00 00 00       	mov    $0x1,%edi
  402100:	e8 2b ed ff ff       	callq  400e30 <exit@plt>

0000000000402105 <rio_readinitb>:
  402105:	89 37                	mov    %esi,(%rdi)
  402107:	c7 47 04 00 00 00 00 	movl   $0x0,0x4(%rdi)
  40210e:	48 8d 47 10          	lea    0x10(%rdi),%rax
  402112:	48 89 47 08          	mov    %rax,0x8(%rdi)
  402116:	c3                   	retq   

0000000000402117 <sigalrm_handler>:
  402117:	48 83 ec 08          	sub    $0x8,%rsp
  40211b:	b9 00 00 00 00       	mov    $0x0,%ecx
  402120:	48 8d 15 e9 14 00 00 	lea    0x14e9(%rip),%rdx        # 403610 <trans_char+0x10>
  402127:	be 01 00 00 00       	mov    $0x1,%esi
  40212c:	48 8b 3d 8d 23 20 00 	mov    0x20238d(%rip),%rdi        # 6044c0 <stderr@@GLIBC_2.2.5>
  402133:	b8 00 00 00 00       	mov    $0x0,%eax
  402138:	e8 13 ed ff ff       	callq  400e50 <__fprintf_chk@plt>
  40213d:	bf 01 00 00 00       	mov    $0x1,%edi
  402142:	e8 e9 ec ff ff       	callq  400e30 <exit@plt>

0000000000402147 <rio_writen>:
  402147:	41 55                	push   %r13
  402149:	41 54                	push   %r12
  40214b:	55                   	push   %rbp
  40214c:	53                   	push   %rbx
  40214d:	48 83 ec 08          	sub    $0x8,%rsp
  402151:	41 89 fc             	mov    %edi,%r12d
  402154:	48 89 f5             	mov    %rsi,%rbp
  402157:	49 89 d5             	mov    %rdx,%r13
  40215a:	48 89 d3             	mov    %rdx,%rbx
  40215d:	eb 06                	jmp    402165 <rio_writen+0x1e>
  40215f:	48 29 c3             	sub    %rax,%rbx
  402162:	48 01 c5             	add    %rax,%rbp
  402165:	48 85 db             	test   %rbx,%rbx
  402168:	74 24                	je     40218e <rio_writen+0x47>
  40216a:	48 89 da             	mov    %rbx,%rdx
  40216d:	48 89 ee             	mov    %rbp,%rsi
  402170:	44 89 e7             	mov    %r12d,%edi
  402173:	e8 58 eb ff ff       	callq  400cd0 <write@plt>
  402178:	48 85 c0             	test   %rax,%rax
  40217b:	7f e2                	jg     40215f <rio_writen+0x18>
  40217d:	e8 fe ea ff ff       	callq  400c80 <__errno_location@plt>
  402182:	83 38 04             	cmpl   $0x4,(%rax)
  402185:	75 15                	jne    40219c <rio_writen+0x55>
  402187:	b8 00 00 00 00       	mov    $0x0,%eax
  40218c:	eb d1                	jmp    40215f <rio_writen+0x18>
  40218e:	4c 89 e8             	mov    %r13,%rax
  402191:	48 83 c4 08          	add    $0x8,%rsp
  402195:	5b                   	pop    %rbx
  402196:	5d                   	pop    %rbp
  402197:	41 5c                	pop    %r12
  402199:	41 5d                	pop    %r13
  40219b:	c3                   	retq   
  40219c:	48 c7 c0 ff ff ff ff 	mov    $0xffffffffffffffff,%rax
  4021a3:	eb ec                	jmp    402191 <rio_writen+0x4a>

00000000004021a5 <rio_read>:
  4021a5:	41 55                	push   %r13
  4021a7:	41 54                	push   %r12
  4021a9:	55                   	push   %rbp
  4021aa:	53                   	push   %rbx
  4021ab:	48 83 ec 08          	sub    $0x8,%rsp
  4021af:	48 89 fb             	mov    %rdi,%rbx
  4021b2:	49 89 f5             	mov    %rsi,%r13
  4021b5:	49 89 d4             	mov    %rdx,%r12
  4021b8:	eb 0a                	jmp    4021c4 <rio_read+0x1f>
  4021ba:	e8 c1 ea ff ff       	callq  400c80 <__errno_location@plt>
  4021bf:	83 38 04             	cmpl   $0x4,(%rax)
  4021c2:	75 5c                	jne    402220 <rio_read+0x7b>
  4021c4:	8b 6b 04             	mov    0x4(%rbx),%ebp
  4021c7:	85 ed                	test   %ebp,%ebp
  4021c9:	7f 24                	jg     4021ef <rio_read+0x4a>
  4021cb:	48 8d 6b 10          	lea    0x10(%rbx),%rbp
  4021cf:	8b 3b                	mov    (%rbx),%edi
  4021d1:	ba 00 20 00 00       	mov    $0x2000,%edx
  4021d6:	48 89 ee             	mov    %rbp,%rsi
  4021d9:	e8 52 eb ff ff       	callq  400d30 <read@plt>
  4021de:	89 43 04             	mov    %eax,0x4(%rbx)
  4021e1:	85 c0                	test   %eax,%eax
  4021e3:	78 d5                	js     4021ba <rio_read+0x15>
  4021e5:	85 c0                	test   %eax,%eax
  4021e7:	74 40                	je     402229 <rio_read+0x84>
  4021e9:	48 89 6b 08          	mov    %rbp,0x8(%rbx)
  4021ed:	eb d5                	jmp    4021c4 <rio_read+0x1f>
  4021ef:	89 e8                	mov    %ebp,%eax
  4021f1:	4c 39 e0             	cmp    %r12,%rax
  4021f4:	72 03                	jb     4021f9 <rio_read+0x54>
  4021f6:	44 89 e5             	mov    %r12d,%ebp
  4021f9:	4c 63 e5             	movslq %ebp,%r12
  4021fc:	48 8b 73 08          	mov    0x8(%rbx),%rsi
  402200:	4c 89 e2             	mov    %r12,%rdx
  402203:	4c 89 ef             	mov    %r13,%rdi
  402206:	e8 75 eb ff ff       	callq  400d80 <memcpy@plt>
  40220b:	4c 01 63 08          	add    %r12,0x8(%rbx)
  40220f:	29 6b 04             	sub    %ebp,0x4(%rbx)
  402212:	4c 89 e0             	mov    %r12,%rax
  402215:	48 83 c4 08          	add    $0x8,%rsp
  402219:	5b                   	pop    %rbx
  40221a:	5d                   	pop    %rbp
  40221b:	41 5c                	pop    %r12
  40221d:	41 5d                	pop    %r13
  40221f:	c3                   	retq   
  402220:	48 c7 c0 ff ff ff ff 	mov    $0xffffffffffffffff,%rax
  402227:	eb ec                	jmp    402215 <rio_read+0x70>
  402229:	b8 00 00 00 00       	mov    $0x0,%eax
  40222e:	eb e5                	jmp    402215 <rio_read+0x70>

0000000000402230 <rio_readlineb>:
  402230:	41 55                	push   %r13
  402232:	41 54                	push   %r12
  402234:	55                   	push   %rbp
  402235:	53                   	push   %rbx
  402236:	48 83 ec 18          	sub    $0x18,%rsp
  40223a:	49 89 fd             	mov    %rdi,%r13
  40223d:	48 89 f5             	mov    %rsi,%rbp
  402240:	49 89 d4             	mov    %rdx,%r12
  402243:	64 48 8b 04 25 28 00 	mov    %fs:0x28,%rax
  40224a:	00 00 
  40224c:	48 89 44 24 08       	mov    %rax,0x8(%rsp)
  402251:	31 c0                	xor    %eax,%eax
  402253:	bb 01 00 00 00       	mov    $0x1,%ebx
  402258:	4c 39 e3             	cmp    %r12,%rbx
  40225b:	73 47                	jae    4022a4 <rio_readlineb+0x74>
  40225d:	48 8d 74 24 07       	lea    0x7(%rsp),%rsi
  402262:	ba 01 00 00 00       	mov    $0x1,%edx
  402267:	4c 89 ef             	mov    %r13,%rdi
  40226a:	e8 36 ff ff ff       	callq  4021a5 <rio_read>
  40226f:	83 f8 01             	cmp    $0x1,%eax
  402272:	75 1c                	jne    402290 <rio_readlineb+0x60>
  402274:	48 8d 45 01          	lea    0x1(%rbp),%rax
  402278:	0f b6 54 24 07       	movzbl 0x7(%rsp),%edx
  40227d:	88 55 00             	mov    %dl,0x0(%rbp)
  402280:	80 7c 24 07 0a       	cmpb   $0xa,0x7(%rsp)
  402285:	74 1a                	je     4022a1 <rio_readlineb+0x71>
  402287:	48 83 c3 01          	add    $0x1,%rbx
  40228b:	48 89 c5             	mov    %rax,%rbp
  40228e:	eb c8                	jmp    402258 <rio_readlineb+0x28>
  402290:	85 c0                	test   %eax,%eax
  402292:	75 32                	jne    4022c6 <rio_readlineb+0x96>
  402294:	48 83 fb 01          	cmp    $0x1,%rbx
  402298:	75 0a                	jne    4022a4 <rio_readlineb+0x74>
  40229a:	b8 00 00 00 00       	mov    $0x0,%eax
  40229f:	eb 0a                	jmp    4022ab <rio_readlineb+0x7b>
  4022a1:	48 89 c5             	mov    %rax,%rbp
  4022a4:	c6 45 00 00          	movb   $0x0,0x0(%rbp)
  4022a8:	48 89 d8             	mov    %rbx,%rax
  4022ab:	48 8b 4c 24 08       	mov    0x8(%rsp),%rcx
  4022b0:	64 48 33 0c 25 28 00 	xor    %fs:0x28,%rcx
  4022b7:	00 00 
  4022b9:	75 14                	jne    4022cf <rio_readlineb+0x9f>
  4022bb:	48 83 c4 18          	add    $0x18,%rsp
  4022bf:	5b                   	pop    %rbx
  4022c0:	5d                   	pop    %rbp
  4022c1:	41 5c                	pop    %r12
  4022c3:	41 5d                	pop    %r13
  4022c5:	c3                   	retq   
  4022c6:	48 c7 c0 ff ff ff ff 	mov    $0xffffffffffffffff,%rax
  4022cd:	eb dc                	jmp    4022ab <rio_readlineb+0x7b>
  4022cf:	e8 0c ea ff ff       	callq  400ce0 <__stack_chk_fail@plt>

00000000004022d4 <urlencode>:
  4022d4:	41 54                	push   %r12
  4022d6:	55                   	push   %rbp
  4022d7:	53                   	push   %rbx
  4022d8:	48 83 ec 10          	sub    $0x10,%rsp
  4022dc:	48 89 fb             	mov    %rdi,%rbx
  4022df:	48 89 f5             	mov    %rsi,%rbp
  4022e2:	64 48 8b 04 25 28 00 	mov    %fs:0x28,%rax
  4022e9:	00 00 
  4022eb:	48 89 44 24 08       	mov    %rax,0x8(%rsp)
  4022f0:	31 c0                	xor    %eax,%eax
  4022f2:	48 c7 c1 ff ff ff ff 	mov    $0xffffffffffffffff,%rcx
  4022f9:	f2 ae                	repnz scas %es:(%rdi),%al
  4022fb:	48 89 ce             	mov    %rcx,%rsi
  4022fe:	48 f7 d6             	not    %rsi
  402301:	8d 46 ff             	lea    -0x1(%rsi),%eax
  402304:	eb 0f                	jmp    402315 <urlencode+0x41>
  402306:	44 88 45 00          	mov    %r8b,0x0(%rbp)
  40230a:	48 8d 6d 01          	lea    0x1(%rbp),%rbp
  40230e:	48 83 c3 01          	add    $0x1,%rbx
  402312:	44 89 e0             	mov    %r12d,%eax
  402315:	44 8d 60 ff          	lea    -0x1(%rax),%r12d
  402319:	85 c0                	test   %eax,%eax
  40231b:	0f 84 a8 00 00 00    	je     4023c9 <urlencode+0xf5>
  402321:	44 0f b6 03          	movzbl (%rbx),%r8d
  402325:	41 80 f8 2a          	cmp    $0x2a,%r8b
  402329:	0f 94 c2             	sete   %dl
  40232c:	41 80 f8 2d          	cmp    $0x2d,%r8b
  402330:	0f 94 c0             	sete   %al
  402333:	08 c2                	or     %al,%dl
  402335:	75 cf                	jne    402306 <urlencode+0x32>
  402337:	41 80 f8 2e          	cmp    $0x2e,%r8b
  40233b:	74 c9                	je     402306 <urlencode+0x32>
  40233d:	41 80 f8 5f          	cmp    $0x5f,%r8b
  402341:	74 c3                	je     402306 <urlencode+0x32>
  402343:	41 8d 40 d0          	lea    -0x30(%r8),%eax
  402347:	3c 09                	cmp    $0x9,%al
  402349:	76 bb                	jbe    402306 <urlencode+0x32>
  40234b:	41 8d 40 bf          	lea    -0x41(%r8),%eax
  40234f:	3c 19                	cmp    $0x19,%al
  402351:	76 b3                	jbe    402306 <urlencode+0x32>
  402353:	41 8d 40 9f          	lea    -0x61(%r8),%eax
  402357:	3c 19                	cmp    $0x19,%al
  402359:	76 ab                	jbe    402306 <urlencode+0x32>
  40235b:	41 80 f8 20          	cmp    $0x20,%r8b
  40235f:	74 56                	je     4023b7 <urlencode+0xe3>
  402361:	41 8d 40 e0          	lea    -0x20(%r8),%eax
  402365:	3c 5f                	cmp    $0x5f,%al
  402367:	0f 96 c2             	setbe  %dl
  40236a:	41 80 f8 09          	cmp    $0x9,%r8b
  40236e:	0f 94 c0             	sete   %al
  402371:	08 c2                	or     %al,%dl
  402373:	74 4f                	je     4023c4 <urlencode+0xf0>
  402375:	48 89 e7             	mov    %rsp,%rdi
  402378:	45 0f b6 c0          	movzbl %r8b,%r8d
  40237c:	48 8d 0d 25 13 00 00 	lea    0x1325(%rip),%rcx        # 4036a8 <trans_char+0xa8>
  402383:	ba 08 00 00 00       	mov    $0x8,%edx
  402388:	be 01 00 00 00       	mov    $0x1,%esi
  40238d:	b8 00 00 00 00       	mov    $0x0,%eax
  402392:	e8 c9 ea ff ff       	callq  400e60 <__sprintf_chk@plt>
  402397:	0f b6 04 24          	movzbl (%rsp),%eax
  40239b:	88 45 00             	mov    %al,0x0(%rbp)
  40239e:	0f b6 44 24 01       	movzbl 0x1(%rsp),%eax
  4023a3:	88 45 01             	mov    %al,0x1(%rbp)
  4023a6:	0f b6 44 24 02       	movzbl 0x2(%rsp),%eax
  4023ab:	88 45 02             	mov    %al,0x2(%rbp)
  4023ae:	48 8d 6d 03          	lea    0x3(%rbp),%rbp
  4023b2:	e9 57 ff ff ff       	jmpq   40230e <urlencode+0x3a>
  4023b7:	c6 45 00 2b          	movb   $0x2b,0x0(%rbp)
  4023bb:	48 8d 6d 01          	lea    0x1(%rbp),%rbp
  4023bf:	e9 4a ff ff ff       	jmpq   40230e <urlencode+0x3a>
  4023c4:	b8 ff ff ff ff       	mov    $0xffffffff,%eax
  4023c9:	48 8b 74 24 08       	mov    0x8(%rsp),%rsi
  4023ce:	64 48 33 34 25 28 00 	xor    %fs:0x28,%rsi
  4023d5:	00 00 
  4023d7:	75 09                	jne    4023e2 <urlencode+0x10e>
  4023d9:	48 83 c4 10          	add    $0x10,%rsp
  4023dd:	5b                   	pop    %rbx
  4023de:	5d                   	pop    %rbp
  4023df:	41 5c                	pop    %r12
  4023e1:	c3                   	retq   
  4023e2:	e8 f9 e8 ff ff       	callq  400ce0 <__stack_chk_fail@plt>

00000000004023e7 <submitr>:
  4023e7:	41 57                	push   %r15
  4023e9:	41 56                	push   %r14
  4023eb:	41 55                	push   %r13
  4023ed:	41 54                	push   %r12
  4023ef:	55                   	push   %rbp
  4023f0:	53                   	push   %rbx
  4023f1:	48 81 ec 68 a0 00 00 	sub    $0xa068,%rsp
  4023f8:	49 89 fd             	mov    %rdi,%r13
  4023fb:	89 74 24 14          	mov    %esi,0x14(%rsp)
  4023ff:	49 89 d7             	mov    %rdx,%r15
  402402:	48 89 4c 24 08       	mov    %rcx,0x8(%rsp)
  402407:	4c 89 44 24 18       	mov    %r8,0x18(%rsp)
  40240c:	4d 89 ce             	mov    %r9,%r14
  40240f:	48 8b ac 24 a0 a0 00 	mov    0xa0a0(%rsp),%rbp
  402416:	00 
  402417:	64 48 8b 04 25 28 00 	mov    %fs:0x28,%rax
  40241e:	00 00 
  402420:	48 89 84 24 58 a0 00 	mov    %rax,0xa058(%rsp)
  402427:	00 
  402428:	31 c0                	xor    %eax,%eax
  40242a:	c7 44 24 2c 00 00 00 	movl   $0x0,0x2c(%rsp)
  402431:	00 
  402432:	ba 00 00 00 00       	mov    $0x0,%edx
  402437:	be 01 00 00 00       	mov    $0x1,%esi
  40243c:	bf 02 00 00 00       	mov    $0x2,%edi
  402441:	e8 2a ea ff ff       	callq  400e70 <socket@plt>
  402446:	85 c0                	test   %eax,%eax
  402448:	0f 88 a9 02 00 00    	js     4026f7 <submitr+0x310>
  40244e:	89 c3                	mov    %eax,%ebx
  402450:	4c 89 ef             	mov    %r13,%rdi
  402453:	e8 f8 e8 ff ff       	callq  400d50 <gethostbyname@plt>
  402458:	48 85 c0             	test   %rax,%rax
  40245b:	0f 84 e2 02 00 00    	je     402743 <submitr+0x35c>
  402461:	4c 8d 64 24 30       	lea    0x30(%rsp),%r12
  402466:	48 c7 44 24 32 00 00 	movq   $0x0,0x32(%rsp)
  40246d:	00 00 
  40246f:	c7 44 24 3a 00 00 00 	movl   $0x0,0x3a(%rsp)
  402476:	00 
  402477:	66 c7 44 24 3e 00 00 	movw   $0x0,0x3e(%rsp)
  40247e:	66 c7 44 24 30 02 00 	movw   $0x2,0x30(%rsp)
  402485:	48 63 50 14          	movslq 0x14(%rax),%rdx
  402489:	48 8b 40 18          	mov    0x18(%rax),%rax
  40248d:	48 8b 30             	mov    (%rax),%rsi
  402490:	48 8d 7c 24 34       	lea    0x34(%rsp),%rdi
  402495:	b9 0c 00 00 00       	mov    $0xc,%ecx
  40249a:	e8 c1 e8 ff ff       	callq  400d60 <__memmove_chk@plt>
  40249f:	0f b7 44 24 14       	movzwl 0x14(%rsp),%eax
  4024a4:	66 c1 c8 08          	ror    $0x8,%ax
  4024a8:	66 89 44 24 32       	mov    %ax,0x32(%rsp)
  4024ad:	ba 10 00 00 00       	mov    $0x10,%edx
  4024b2:	4c 89 e6             	mov    %r12,%rsi
  4024b5:	89 df                	mov    %ebx,%edi
  4024b7:	e8 84 e9 ff ff       	callq  400e40 <connect@plt>
  4024bc:	85 c0                	test   %eax,%eax
  4024be:	0f 88 e7 02 00 00    	js     4027ab <submitr+0x3c4>
  4024c4:	48 c7 c6 ff ff ff ff 	mov    $0xffffffffffffffff,%rsi
  4024cb:	b8 00 00 00 00       	mov    $0x0,%eax
  4024d0:	48 89 f1             	mov    %rsi,%rcx
  4024d3:	4c 89 f7             	mov    %r14,%rdi
  4024d6:	f2 ae                	repnz scas %es:(%rdi),%al
  4024d8:	48 89 ca             	mov    %rcx,%rdx
  4024db:	48 f7 d2             	not    %rdx
  4024de:	48 89 f1             	mov    %rsi,%rcx
  4024e1:	4c 89 ff             	mov    %r15,%rdi
  4024e4:	f2 ae                	repnz scas %es:(%rdi),%al
  4024e6:	48 f7 d1             	not    %rcx
  4024e9:	49 89 c8             	mov    %rcx,%r8
  4024ec:	48 89 f1             	mov    %rsi,%rcx
  4024ef:	48 8b 7c 24 08       	mov    0x8(%rsp),%rdi
  4024f4:	f2 ae                	repnz scas %es:(%rdi),%al
  4024f6:	48 f7 d1             	not    %rcx
  4024f9:	4d 8d 44 08 fe       	lea    -0x2(%r8,%rcx,1),%r8
  4024fe:	48 89 f1             	mov    %rsi,%rcx
  402501:	48 8b 7c 24 18       	mov    0x18(%rsp),%rdi
  402506:	f2 ae                	repnz scas %es:(%rdi),%al
  402508:	48 89 c8             	mov    %rcx,%rax
  40250b:	48 f7 d0             	not    %rax
  40250e:	49 8d 4c 00 ff       	lea    -0x1(%r8,%rax,1),%rcx
  402513:	48 8d 44 52 fd       	lea    -0x3(%rdx,%rdx,2),%rax
  402518:	48 8d 84 01 80 00 00 	lea    0x80(%rcx,%rax,1),%rax
  40251f:	00 
  402520:	48 3d 00 20 00 00    	cmp    $0x2000,%rax
  402526:	0f 87 d9 02 00 00    	ja     402805 <submitr+0x41e>
  40252c:	48 8d b4 24 50 40 00 	lea    0x4050(%rsp),%rsi
  402533:	00 
  402534:	b9 00 04 00 00       	mov    $0x400,%ecx
  402539:	b8 00 00 00 00       	mov    $0x0,%eax
  40253e:	48 89 f7             	mov    %rsi,%rdi
  402541:	f3 48 ab             	rep stos %rax,%es:(%rdi)
  402544:	4c 89 f7             	mov    %r14,%rdi
  402547:	e8 88 fd ff ff       	callq  4022d4 <urlencode>
  40254c:	85 c0                	test   %eax,%eax
  40254e:	0f 88 24 03 00 00    	js     402878 <submitr+0x491>
  402554:	4c 8d a4 24 50 20 00 	lea    0x2050(%rsp),%r12
  40255b:	00 
  40255c:	41 55                	push   %r13
  40255e:	48 8d 84 24 58 40 00 	lea    0x4058(%rsp),%rax
  402565:	00 
  402566:	50                   	push   %rax
  402567:	4d 89 f9             	mov    %r15,%r9
  40256a:	4c 8b 44 24 18       	mov    0x18(%rsp),%r8
  40256f:	48 8d 0d c2 10 00 00 	lea    0x10c2(%rip),%rcx        # 403638 <trans_char+0x38>
  402576:	ba 00 20 00 00       	mov    $0x2000,%edx
  40257b:	be 01 00 00 00       	mov    $0x1,%esi
  402580:	4c 89 e7             	mov    %r12,%rdi
  402583:	b8 00 00 00 00       	mov    $0x0,%eax
  402588:	e8 d3 e8 ff ff       	callq  400e60 <__sprintf_chk@plt>
  40258d:	48 c7 c1 ff ff ff ff 	mov    $0xffffffffffffffff,%rcx
  402594:	b8 00 00 00 00       	mov    $0x0,%eax
  402599:	4c 89 e7             	mov    %r12,%rdi
  40259c:	f2 ae                	repnz scas %es:(%rdi),%al
  40259e:	48 89 ca             	mov    %rcx,%rdx
  4025a1:	48 f7 d2             	not    %rdx
  4025a4:	48 8d 52 ff          	lea    -0x1(%rdx),%rdx
  4025a8:	4c 89 e6             	mov    %r12,%rsi
  4025ab:	89 df                	mov    %ebx,%edi
  4025ad:	e8 95 fb ff ff       	callq  402147 <rio_writen>
  4025b2:	48 83 c4 10          	add    $0x10,%rsp
  4025b6:	48 85 c0             	test   %rax,%rax
  4025b9:	0f 88 44 03 00 00    	js     402903 <submitr+0x51c>
  4025bf:	4c 8d 64 24 40       	lea    0x40(%rsp),%r12
  4025c4:	89 de                	mov    %ebx,%esi
  4025c6:	4c 89 e7             	mov    %r12,%rdi
  4025c9:	e8 37 fb ff ff       	callq  402105 <rio_readinitb>
  4025ce:	48 8d b4 24 50 20 00 	lea    0x2050(%rsp),%rsi
  4025d5:	00 
  4025d6:	ba 00 20 00 00       	mov    $0x2000,%edx
  4025db:	4c 89 e7             	mov    %r12,%rdi
  4025de:	e8 4d fc ff ff       	callq  402230 <rio_readlineb>
  4025e3:	48 85 c0             	test   %rax,%rax
  4025e6:	0f 8e 86 03 00 00    	jle    402972 <submitr+0x58b>
  4025ec:	48 8d 4c 24 2c       	lea    0x2c(%rsp),%rcx
  4025f1:	48 8d 94 24 50 60 00 	lea    0x6050(%rsp),%rdx
  4025f8:	00 
  4025f9:	48 8d bc 24 50 20 00 	lea    0x2050(%rsp),%rdi
  402600:	00 
  402601:	4c 8d 84 24 50 80 00 	lea    0x8050(%rsp),%r8
  402608:	00 
  402609:	48 8d 35 9f 10 00 00 	lea    0x109f(%rip),%rsi        # 4036af <trans_char+0xaf>
  402610:	b8 00 00 00 00       	mov    $0x0,%eax
  402615:	e8 a6 e7 ff ff       	callq  400dc0 <__isoc99_sscanf@plt>
  40261a:	48 8d b4 24 50 20 00 	lea    0x2050(%rsp),%rsi
  402621:	00 
  402622:	b9 03 00 00 00       	mov    $0x3,%ecx
  402627:	48 8d 3d 98 10 00 00 	lea    0x1098(%rip),%rdi        # 4036c6 <trans_char+0xc6>
  40262e:	f3 a6                	repz cmpsb %es:(%rdi),%ds:(%rsi)
  402630:	0f 97 c0             	seta   %al
  402633:	1c 00                	sbb    $0x0,%al
  402635:	84 c0                	test   %al,%al
  402637:	0f 84 b3 03 00 00    	je     4029f0 <submitr+0x609>
  40263d:	48 8d b4 24 50 20 00 	lea    0x2050(%rsp),%rsi
  402644:	00 
  402645:	48 8d 7c 24 40       	lea    0x40(%rsp),%rdi
  40264a:	ba 00 20 00 00       	mov    $0x2000,%edx
  40264f:	e8 dc fb ff ff       	callq  402230 <rio_readlineb>
  402654:	48 85 c0             	test   %rax,%rax
  402657:	7f c1                	jg     40261a <submitr+0x233>
  402659:	48 b8 45 72 72 6f 72 	movabs $0x43203a726f727245,%rax
  402660:	3a 20 43 
  402663:	48 ba 6c 69 65 6e 74 	movabs $0x6e7520746e65696c,%rdx
  40266a:	20 75 6e 
  40266d:	48 89 45 00          	mov    %rax,0x0(%rbp)
  402671:	48 89 55 08          	mov    %rdx,0x8(%rbp)
  402675:	48 b8 61 62 6c 65 20 	movabs $0x206f7420656c6261,%rax
  40267c:	74 6f 20 
  40267f:	48 ba 72 65 61 64 20 	movabs $0x6165682064616572,%rdx
  402686:	68 65 61 
  402689:	48 89 45 10          	mov    %rax,0x10(%rbp)
  40268d:	48 89 55 18          	mov    %rdx,0x18(%rbp)
  402691:	48 b8 64 65 72 73 20 	movabs $0x6f72662073726564,%rax
  402698:	66 72 6f 
  40269b:	48 ba 6d 20 74 68 65 	movabs $0x657220656874206d,%rdx
  4026a2:	20 72 65 
  4026a5:	48 89 45 20          	mov    %rax,0x20(%rbp)
  4026a9:	48 89 55 28          	mov    %rdx,0x28(%rbp)
  4026ad:	48 b8 73 75 6c 74 20 	movabs $0x72657320746c7573,%rax
  4026b4:	73 65 72 
  4026b7:	48 89 45 30          	mov    %rax,0x30(%rbp)
  4026bb:	c7 45 38 76 65 72 00 	movl   $0x726576,0x38(%rbp)
  4026c2:	89 df                	mov    %ebx,%edi
  4026c4:	e8 57 e6 ff ff       	callq  400d20 <close@plt>
  4026c9:	b8 ff ff ff ff       	mov    $0xffffffff,%eax
  4026ce:	48 8b 9c 24 58 a0 00 	mov    0xa058(%rsp),%rbx
  4026d5:	00 
  4026d6:	64 48 33 1c 25 28 00 	xor    %fs:0x28,%rbx
  4026dd:	00 00 
  4026df:	0f 85 7e 04 00 00    	jne    402b63 <submitr+0x77c>
  4026e5:	48 81 c4 68 a0 00 00 	add    $0xa068,%rsp
  4026ec:	5b                   	pop    %rbx
  4026ed:	5d                   	pop    %rbp
  4026ee:	41 5c                	pop    %r12
  4026f0:	41 5d                	pop    %r13
  4026f2:	41 5e                	pop    %r14
  4026f4:	41 5f                	pop    %r15
  4026f6:	c3                   	retq   
  4026f7:	48 b8 45 72 72 6f 72 	movabs $0x43203a726f727245,%rax
  4026fe:	3a 20 43 
  402701:	48 ba 6c 69 65 6e 74 	movabs $0x6e7520746e65696c,%rdx
  402708:	20 75 6e 
  40270b:	48 89 45 00          	mov    %rax,0x0(%rbp)
  40270f:	48 89 55 08          	mov    %rdx,0x8(%rbp)
  402713:	48 b8 61 62 6c 65 20 	movabs $0x206f7420656c6261,%rax
  40271a:	74 6f 20 
  40271d:	48 ba 63 72 65 61 74 	movabs $0x7320657461657263,%rdx
  402724:	65 20 73 
  402727:	48 89 45 10          	mov    %rax,0x10(%rbp)
  40272b:	48 89 55 18          	mov    %rdx,0x18(%rbp)
  40272f:	c7 45 20 6f 63 6b 65 	movl   $0x656b636f,0x20(%rbp)
  402736:	66 c7 45 24 74 00    	movw   $0x74,0x24(%rbp)
  40273c:	b8 ff ff ff ff       	mov    $0xffffffff,%eax
  402741:	eb 8b                	jmp    4026ce <submitr+0x2e7>
  402743:	48 b8 45 72 72 6f 72 	movabs $0x44203a726f727245,%rax
  40274a:	3a 20 44 
  40274d:	48 ba 4e 53 20 69 73 	movabs $0x6e7520736920534e,%rdx
  402754:	20 75 6e 
  402757:	48 89 45 00          	mov    %rax,0x0(%rbp)
  40275b:	48 89 55 08          	mov    %rdx,0x8(%rbp)
  40275f:	48 b8 61 62 6c 65 20 	movabs $0x206f7420656c6261,%rax
  402766:	74 6f 20 
  402769:	48 ba 72 65 73 6f 6c 	movabs $0x2065766c6f736572,%rdx
  402770:	76 65 20 
  402773:	48 89 45 10          	mov    %rax,0x10(%rbp)
  402777:	48 89 55 18          	mov    %rdx,0x18(%rbp)
  40277b:	48 b8 73 65 72 76 65 	movabs $0x6120726576726573,%rax
  402782:	72 20 61 
  402785:	48 89 45 20          	mov    %rax,0x20(%rbp)
  402789:	c7 45 28 64 64 72 65 	movl   $0x65726464,0x28(%rbp)
  402790:	66 c7 45 2c 73 73    	movw   $0x7373,0x2c(%rbp)
  402796:	c6 45 2e 00          	movb   $0x0,0x2e(%rbp)
  40279a:	89 df                	mov    %ebx,%edi
  40279c:	e8 7f e5 ff ff       	callq  400d20 <close@plt>
  4027a1:	b8 ff ff ff ff       	mov    $0xffffffff,%eax
  4027a6:	e9 23 ff ff ff       	jmpq   4026ce <submitr+0x2e7>
  4027ab:	48 b8 45 72 72 6f 72 	movabs $0x55203a726f727245,%rax
  4027b2:	3a 20 55 
  4027b5:	48 ba 6e 61 62 6c 65 	movabs $0x6f7420656c62616e,%rdx
  4027bc:	20 74 6f 
  4027bf:	48 89 45 00          	mov    %rax,0x0(%rbp)
  4027c3:	48 89 55 08          	mov    %rdx,0x8(%rbp)
  4027c7:	48 b8 20 63 6f 6e 6e 	movabs $0x7463656e6e6f6320,%rax
  4027ce:	65 63 74 
  4027d1:	48 ba 20 74 6f 20 74 	movabs $0x20656874206f7420,%rdx
  4027d8:	68 65 20 
  4027db:	48 89 45 10          	mov    %rax,0x10(%rbp)
  4027df:	48 89 55 18          	mov    %rdx,0x18(%rbp)
  4027e3:	c7 45 20 73 65 72 76 	movl   $0x76726573,0x20(%rbp)
  4027ea:	66 c7 45 24 65 72    	movw   $0x7265,0x24(%rbp)
  4027f0:	c6 45 26 00          	movb   $0x0,0x26(%rbp)
  4027f4:	89 df                	mov    %ebx,%edi
  4027f6:	e8 25 e5 ff ff       	callq  400d20 <close@plt>
  4027fb:	b8 ff ff ff ff       	mov    $0xffffffff,%eax
  402800:	e9 c9 fe ff ff       	jmpq   4026ce <submitr+0x2e7>
  402805:	48 b8 45 72 72 6f 72 	movabs $0x52203a726f727245,%rax
  40280c:	3a 20 52 
  40280f:	48 ba 65 73 75 6c 74 	movabs $0x747320746c757365,%rdx
  402816:	20 73 74 
  402819:	48 89 45 00          	mov    %rax,0x0(%rbp)
  40281d:	48 89 55 08          	mov    %rdx,0x8(%rbp)
  402821:	48 b8 72 69 6e 67 20 	movabs $0x6f6f7420676e6972,%rax
  402828:	74 6f 6f 
  40282b:	48 ba 20 6c 61 72 67 	movabs $0x202e656772616c20,%rdx
  402832:	65 2e 20 
  402835:	48 89 45 10          	mov    %rax,0x10(%rbp)
  402839:	48 89 55 18          	mov    %rdx,0x18(%rbp)
  40283d:	48 b8 49 6e 63 72 65 	movabs $0x6573616572636e49,%rax
  402844:	61 73 65 
  402847:	48 ba 20 53 55 42 4d 	movabs $0x5254494d42555320,%rdx
  40284e:	49 54 52 
  402851:	48 89 45 20          	mov    %rax,0x20(%rbp)
  402855:	48 89 55 28          	mov    %rdx,0x28(%rbp)
  402859:	48 b8 5f 4d 41 58 42 	movabs $0x46554258414d5f,%rax
  402860:	55 46 00 
  402863:	48 89 45 30          	mov    %rax,0x30(%rbp)
  402867:	89 df                	mov    %ebx,%edi
  402869:	e8 b2 e4 ff ff       	callq  400d20 <close@plt>
  40286e:	b8 ff ff ff ff       	mov    $0xffffffff,%eax
  402873:	e9 56 fe ff ff       	jmpq   4026ce <submitr+0x2e7>
  402878:	48 b8 45 72 72 6f 72 	movabs $0x52203a726f727245,%rax
  40287f:	3a 20 52 
  402882:	48 ba 65 73 75 6c 74 	movabs $0x747320746c757365,%rdx
  402889:	20 73 74 
  40288c:	48 89 45 00          	mov    %rax,0x0(%rbp)
  402890:	48 89 55 08          	mov    %rdx,0x8(%rbp)
  402894:	48 b8 72 69 6e 67 20 	movabs $0x6e6f6320676e6972,%rax
  40289b:	63 6f 6e 
  40289e:	48 ba 74 61 69 6e 73 	movabs $0x6e6120736e696174,%rdx
  4028a5:	20 61 6e 
  4028a8:	48 89 45 10          	mov    %rax,0x10(%rbp)
  4028ac:	48 89 55 18          	mov    %rdx,0x18(%rbp)
  4028b0:	48 b8 20 69 6c 6c 65 	movabs $0x6c6167656c6c6920,%rax
  4028b7:	67 61 6c 
  4028ba:	48 ba 20 6f 72 20 75 	movabs $0x72706e7520726f20,%rdx
  4028c1:	6e 70 72 
  4028c4:	48 89 45 20          	mov    %rax,0x20(%rbp)
  4028c8:	48 89 55 28          	mov    %rdx,0x28(%rbp)
  4028cc:	48 b8 69 6e 74 61 62 	movabs $0x20656c6261746e69,%rax
  4028d3:	6c 65 20 
  4028d6:	48 ba 63 68 61 72 61 	movabs $0x6574636172616863,%rdx
  4028dd:	63 74 65 
  4028e0:	48 89 45 30          	mov    %rax,0x30(%rbp)
  4028e4:	48 89 55 38          	mov    %rdx,0x38(%rbp)
  4028e8:	66 c7 45 40 72 2e    	movw   $0x2e72,0x40(%rbp)
  4028ee:	c6 45 42 00          	movb   $0x0,0x42(%rbp)
  4028f2:	89 df                	mov    %ebx,%edi
  4028f4:	e8 27 e4 ff ff       	callq  400d20 <close@plt>
  4028f9:	b8 ff ff ff ff       	mov    $0xffffffff,%eax
  4028fe:	e9 cb fd ff ff       	jmpq   4026ce <submitr+0x2e7>
  402903:	48 b8 45 72 72 6f 72 	movabs $0x43203a726f727245,%rax
  40290a:	3a 20 43 
  40290d:	48 ba 6c 69 65 6e 74 	movabs $0x6e7520746e65696c,%rdx
  402914:	20 75 6e 
  402917:	48 89 45 00          	mov    %rax,0x0(%rbp)
  40291b:	48 89 55 08          	mov    %rdx,0x8(%rbp)
  40291f:	48 b8 61 62 6c 65 20 	movabs $0x206f7420656c6261,%rax
  402926:	74 6f 20 
  402929:	48 ba 77 72 69 74 65 	movabs $0x6f74206574697277,%rdx
  402930:	20 74 6f 
  402933:	48 89 45 10          	mov    %rax,0x10(%rbp)
  402937:	48 89 55 18          	mov    %rdx,0x18(%rbp)
  40293b:	48 b8 20 74 68 65 20 	movabs $0x7365722065687420,%rax
  402942:	72 65 73 
  402945:	48 ba 75 6c 74 20 73 	movabs $0x7672657320746c75,%rdx
  40294c:	65 72 76 
  40294f:	48 89 45 20          	mov    %rax,0x20(%rbp)
  402953:	48 89 55 28          	mov    %rdx,0x28(%rbp)
  402957:	66 c7 45 30 65 72    	movw   $0x7265,0x30(%rbp)
  40295d:	c6 45 32 00          	movb   $0x0,0x32(%rbp)
  402961:	89 df                	mov    %ebx,%edi
  402963:	e8 b8 e3 ff ff       	callq  400d20 <close@plt>
  402968:	b8 ff ff ff ff       	mov    $0xffffffff,%eax
  40296d:	e9 5c fd ff ff       	jmpq   4026ce <submitr+0x2e7>
  402972:	48 b8 45 72 72 6f 72 	movabs $0x43203a726f727245,%rax
  402979:	3a 20 43 
  40297c:	48 ba 6c 69 65 6e 74 	movabs $0x6e7520746e65696c,%rdx
  402983:	20 75 6e 
  402986:	48 89 45 00          	mov    %rax,0x0(%rbp)
  40298a:	48 89 55 08          	mov    %rdx,0x8(%rbp)
  40298e:	48 b8 61 62 6c 65 20 	movabs $0x206f7420656c6261,%rax
  402995:	74 6f 20 
  402998:	48 ba 72 65 61 64 20 	movabs $0x7269662064616572,%rdx
  40299f:	66 69 72 
  4029a2:	48 89 45 10          	mov    %rax,0x10(%rbp)
  4029a6:	48 89 55 18          	mov    %rdx,0x18(%rbp)
  4029aa:	48 b8 73 74 20 68 65 	movabs $0x6564616568207473,%rax
  4029b1:	61 64 65 
  4029b4:	48 ba 72 20 66 72 6f 	movabs $0x72206d6f72662072,%rdx
  4029bb:	6d 20 72 
  4029be:	48 89 45 20          	mov    %rax,0x20(%rbp)
  4029c2:	48 89 55 28          	mov    %rdx,0x28(%rbp)
  4029c6:	48 b8 65 73 75 6c 74 	movabs $0x657320746c757365,%rax
  4029cd:	20 73 65 
  4029d0:	48 89 45 30          	mov    %rax,0x30(%rbp)
  4029d4:	c7 45 38 72 76 65 72 	movl   $0x72657672,0x38(%rbp)
  4029db:	c6 45 3c 00          	movb   $0x0,0x3c(%rbp)
  4029df:	89 df                	mov    %ebx,%edi
  4029e1:	e8 3a e3 ff ff       	callq  400d20 <close@plt>
  4029e6:	b8 ff ff ff ff       	mov    $0xffffffff,%eax
  4029eb:	e9 de fc ff ff       	jmpq   4026ce <submitr+0x2e7>
  4029f0:	48 8d b4 24 50 20 00 	lea    0x2050(%rsp),%rsi
  4029f7:	00 
  4029f8:	48 8d 7c 24 40       	lea    0x40(%rsp),%rdi
  4029fd:	ba 00 20 00 00       	mov    $0x2000,%edx
  402a02:	e8 29 f8 ff ff       	callq  402230 <rio_readlineb>
  402a07:	48 85 c0             	test   %rax,%rax
  402a0a:	0f 8e 96 00 00 00    	jle    402aa6 <submitr+0x6bf>
  402a10:	44 8b 44 24 2c       	mov    0x2c(%rsp),%r8d
  402a15:	41 81 f8 c8 00 00 00 	cmp    $0xc8,%r8d
  402a1c:	0f 85 08 01 00 00    	jne    402b2a <submitr+0x743>
  402a22:	48 8d b4 24 50 20 00 	lea    0x2050(%rsp),%rsi
  402a29:	00 
  402a2a:	48 89 ef             	mov    %rbp,%rdi
  402a2d:	e8 7e e2 ff ff       	callq  400cb0 <strcpy@plt>
  402a32:	89 df                	mov    %ebx,%edi
  402a34:	e8 e7 e2 ff ff       	callq  400d20 <close@plt>
  402a39:	b9 04 00 00 00       	mov    $0x4,%ecx
  402a3e:	48 8d 3d 7b 0c 00 00 	lea    0xc7b(%rip),%rdi        # 4036c0 <trans_char+0xc0>
  402a45:	48 89 ee             	mov    %rbp,%rsi
  402a48:	f3 a6                	repz cmpsb %es:(%rdi),%ds:(%rsi)
  402a4a:	0f 97 c0             	seta   %al
  402a4d:	1c 00                	sbb    $0x0,%al
  402a4f:	0f be c0             	movsbl %al,%eax
  402a52:	85 c0                	test   %eax,%eax
  402a54:	0f 84 74 fc ff ff    	je     4026ce <submitr+0x2e7>
  402a5a:	b9 05 00 00 00       	mov    $0x5,%ecx
  402a5f:	48 8d 3d 5e 0c 00 00 	lea    0xc5e(%rip),%rdi        # 4036c4 <trans_char+0xc4>
  402a66:	48 89 ee             	mov    %rbp,%rsi
  402a69:	f3 a6                	repz cmpsb %es:(%rdi),%ds:(%rsi)
  402a6b:	0f 97 c0             	seta   %al
  402a6e:	1c 00                	sbb    $0x0,%al
  402a70:	0f be c0             	movsbl %al,%eax
  402a73:	85 c0                	test   %eax,%eax
  402a75:	0f 84 53 fc ff ff    	je     4026ce <submitr+0x2e7>
  402a7b:	b9 03 00 00 00       	mov    $0x3,%ecx
  402a80:	48 8d 3d 42 0c 00 00 	lea    0xc42(%rip),%rdi        # 4036c9 <trans_char+0xc9>
  402a87:	48 89 ee             	mov    %rbp,%rsi
  402a8a:	f3 a6                	repz cmpsb %es:(%rdi),%ds:(%rsi)
  402a8c:	0f 97 c0             	seta   %al
  402a8f:	1c 00                	sbb    $0x0,%al
  402a91:	0f be c0             	movsbl %al,%eax
  402a94:	85 c0                	test   %eax,%eax
  402a96:	0f 84 32 fc ff ff    	je     4026ce <submitr+0x2e7>
  402a9c:	b8 ff ff ff ff       	mov    $0xffffffff,%eax
  402aa1:	e9 28 fc ff ff       	jmpq   4026ce <submitr+0x2e7>
  402aa6:	48 b8 45 72 72 6f 72 	movabs $0x43203a726f727245,%rax
  402aad:	3a 20 43 
  402ab0:	48 ba 6c 69 65 6e 74 	movabs $0x6e7520746e65696c,%rdx
  402ab7:	20 75 6e 
  402aba:	48 89 45 00          	mov    %rax,0x0(%rbp)
  402abe:	48 89 55 08          	mov    %rdx,0x8(%rbp)
  402ac2:	48 b8 61 62 6c 65 20 	movabs $0x206f7420656c6261,%rax
  402ac9:	74 6f 20 
  402acc:	48 ba 72 65 61 64 20 	movabs $0x6174732064616572,%rdx
  402ad3:	73 74 61 
  402ad6:	48 89 45 10          	mov    %rax,0x10(%rbp)
  402ada:	48 89 55 18          	mov    %rdx,0x18(%rbp)
  402ade:	48 b8 74 75 73 20 6d 	movabs $0x7373656d20737574,%rax
  402ae5:	65 73 73 
  402ae8:	48 ba 61 67 65 20 66 	movabs $0x6d6f726620656761,%rdx
  402aef:	72 6f 6d 
  402af2:	48 89 45 20          	mov    %rax,0x20(%rbp)
  402af6:	48 89 55 28          	mov    %rdx,0x28(%rbp)
  402afa:	48 b8 20 72 65 73 75 	movabs $0x20746c7573657220,%rax
  402b01:	6c 74 20 
  402b04:	48 89 45 30          	mov    %rax,0x30(%rbp)
  402b08:	c7 45 38 73 65 72 76 	movl   $0x76726573,0x38(%rbp)
  402b0f:	66 c7 45 3c 65 72    	movw   $0x7265,0x3c(%rbp)
  402b15:	c6 45 3e 00          	movb   $0x0,0x3e(%rbp)
  402b19:	89 df                	mov    %ebx,%edi
  402b1b:	e8 00 e2 ff ff       	callq  400d20 <close@plt>
  402b20:	b8 ff ff ff ff       	mov    $0xffffffff,%eax
  402b25:	e9 a4 fb ff ff       	jmpq   4026ce <submitr+0x2e7>
  402b2a:	4c 8d 8c 24 50 80 00 	lea    0x8050(%rsp),%r9
  402b31:	00 
  402b32:	48 8d 0d 3f 0b 00 00 	lea    0xb3f(%rip),%rcx        # 403678 <trans_char+0x78>
  402b39:	48 c7 c2 ff ff ff ff 	mov    $0xffffffffffffffff,%rdx
  402b40:	be 01 00 00 00       	mov    $0x1,%esi
  402b45:	48 89 ef             	mov    %rbp,%rdi
  402b48:	b8 00 00 00 00       	mov    $0x0,%eax
  402b4d:	e8 0e e3 ff ff       	callq  400e60 <__sprintf_chk@plt>
  402b52:	89 df                	mov    %ebx,%edi
  402b54:	e8 c7 e1 ff ff       	callq  400d20 <close@plt>
  402b59:	b8 ff ff ff ff       	mov    $0xffffffff,%eax
  402b5e:	e9 6b fb ff ff       	jmpq   4026ce <submitr+0x2e7>
  402b63:	e8 78 e1 ff ff       	callq  400ce0 <__stack_chk_fail@plt>

0000000000402b68 <init_timeout>:
  402b68:	85 ff                	test   %edi,%edi
  402b6a:	74 28                	je     402b94 <init_timeout+0x2c>
  402b6c:	53                   	push   %rbx
  402b6d:	89 fb                	mov    %edi,%ebx
  402b6f:	85 ff                	test   %edi,%edi
  402b71:	78 1a                	js     402b8d <init_timeout+0x25>
  402b73:	48 8d 35 9d f5 ff ff 	lea    -0xa63(%rip),%rsi        # 402117 <sigalrm_handler>
  402b7a:	bf 0e 00 00 00       	mov    $0xe,%edi
  402b7f:	e8 bc e1 ff ff       	callq  400d40 <signal@plt>
  402b84:	89 df                	mov    %ebx,%edi
  402b86:	e8 85 e1 ff ff       	callq  400d10 <alarm@plt>
  402b8b:	5b                   	pop    %rbx
  402b8c:	c3                   	retq   
  402b8d:	bb 00 00 00 00       	mov    $0x0,%ebx
  402b92:	eb df                	jmp    402b73 <init_timeout+0xb>
  402b94:	f3 c3                	repz retq 

0000000000402b96 <init_driver>:
  402b96:	41 54                	push   %r12
  402b98:	55                   	push   %rbp
  402b99:	53                   	push   %rbx
  402b9a:	48 83 ec 20          	sub    $0x20,%rsp
  402b9e:	49 89 fc             	mov    %rdi,%r12
  402ba1:	64 48 8b 04 25 28 00 	mov    %fs:0x28,%rax
  402ba8:	00 00 
  402baa:	48 89 44 24 18       	mov    %rax,0x18(%rsp)
  402baf:	31 c0                	xor    %eax,%eax
  402bb1:	be 01 00 00 00       	mov    $0x1,%esi
  402bb6:	bf 0d 00 00 00       	mov    $0xd,%edi
  402bbb:	e8 80 e1 ff ff       	callq  400d40 <signal@plt>
  402bc0:	be 01 00 00 00       	mov    $0x1,%esi
  402bc5:	bf 1d 00 00 00       	mov    $0x1d,%edi
  402bca:	e8 71 e1 ff ff       	callq  400d40 <signal@plt>
  402bcf:	be 01 00 00 00       	mov    $0x1,%esi
  402bd4:	bf 1d 00 00 00       	mov    $0x1d,%edi
  402bd9:	e8 62 e1 ff ff       	callq  400d40 <signal@plt>
  402bde:	ba 00 00 00 00       	mov    $0x0,%edx
  402be3:	be 01 00 00 00       	mov    $0x1,%esi
  402be8:	bf 02 00 00 00       	mov    $0x2,%edi
  402bed:	e8 7e e2 ff ff       	callq  400e70 <socket@plt>
  402bf2:	85 c0                	test   %eax,%eax
  402bf4:	0f 88 a3 00 00 00    	js     402c9d <init_driver+0x107>
  402bfa:	89 c3                	mov    %eax,%ebx
  402bfc:	48 8d 3d c9 0a 00 00 	lea    0xac9(%rip),%rdi        # 4036cc <trans_char+0xcc>
  402c03:	e8 48 e1 ff ff       	callq  400d50 <gethostbyname@plt>
  402c08:	48 85 c0             	test   %rax,%rax
  402c0b:	0f 84 df 00 00 00    	je     402cf0 <init_driver+0x15a>
  402c11:	48 89 e5             	mov    %rsp,%rbp
  402c14:	48 c7 44 24 02 00 00 	movq   $0x0,0x2(%rsp)
  402c1b:	00 00 
  402c1d:	c7 45 0a 00 00 00 00 	movl   $0x0,0xa(%rbp)
  402c24:	66 c7 45 0e 00 00    	movw   $0x0,0xe(%rbp)
  402c2a:	66 c7 04 24 02 00    	movw   $0x2,(%rsp)
  402c30:	48 63 50 14          	movslq 0x14(%rax),%rdx
  402c34:	48 8b 40 18          	mov    0x18(%rax),%rax
  402c38:	48 8b 30             	mov    (%rax),%rsi
  402c3b:	48 8d 7d 04          	lea    0x4(%rbp),%rdi
  402c3f:	b9 0c 00 00 00       	mov    $0xc,%ecx
  402c44:	e8 17 e1 ff ff       	callq  400d60 <__memmove_chk@plt>
  402c49:	66 c7 44 24 02 77 09 	movw   $0x977,0x2(%rsp)
  402c50:	ba 10 00 00 00       	mov    $0x10,%edx
  402c55:	48 89 ee             	mov    %rbp,%rsi
  402c58:	89 df                	mov    %ebx,%edi
  402c5a:	e8 e1 e1 ff ff       	callq  400e40 <connect@plt>
  402c5f:	85 c0                	test   %eax,%eax
  402c61:	0f 88 fb 00 00 00    	js     402d62 <init_driver+0x1cc>
  402c67:	89 df                	mov    %ebx,%edi
  402c69:	e8 b2 e0 ff ff       	callq  400d20 <close@plt>
  402c6e:	66 41 c7 04 24 4f 4b 	movw   $0x4b4f,(%r12)
  402c75:	41 c6 44 24 02 00    	movb   $0x0,0x2(%r12)
  402c7b:	b8 00 00 00 00       	mov    $0x0,%eax
  402c80:	48 8b 4c 24 18       	mov    0x18(%rsp),%rcx
  402c85:	64 48 33 0c 25 28 00 	xor    %fs:0x28,%rcx
  402c8c:	00 00 
  402c8e:	0f 85 28 01 00 00    	jne    402dbc <init_driver+0x226>
  402c94:	48 83 c4 20          	add    $0x20,%rsp
  402c98:	5b                   	pop    %rbx
  402c99:	5d                   	pop    %rbp
  402c9a:	41 5c                	pop    %r12
  402c9c:	c3                   	retq   
  402c9d:	48 b8 45 72 72 6f 72 	movabs $0x43203a726f727245,%rax
  402ca4:	3a 20 43 
  402ca7:	48 ba 6c 69 65 6e 74 	movabs $0x6e7520746e65696c,%rdx
  402cae:	20 75 6e 
  402cb1:	49 89 04 24          	mov    %rax,(%r12)
  402cb5:	49 89 54 24 08       	mov    %rdx,0x8(%r12)
  402cba:	48 b8 61 62 6c 65 20 	movabs $0x206f7420656c6261,%rax
  402cc1:	74 6f 20 
  402cc4:	48 ba 63 72 65 61 74 	movabs $0x7320657461657263,%rdx
  402ccb:	65 20 73 
  402cce:	49 89 44 24 10       	mov    %rax,0x10(%r12)
  402cd3:	49 89 54 24 18       	mov    %rdx,0x18(%r12)
  402cd8:	41 c7 44 24 20 6f 63 	movl   $0x656b636f,0x20(%r12)
  402cdf:	6b 65 
  402ce1:	66 41 c7 44 24 24 74 	movw   $0x74,0x24(%r12)
  402ce8:	00 
  402ce9:	b8 ff ff ff ff       	mov    $0xffffffff,%eax
  402cee:	eb 90                	jmp    402c80 <init_driver+0xea>
  402cf0:	48 b8 45 72 72 6f 72 	movabs $0x44203a726f727245,%rax
  402cf7:	3a 20 44 
  402cfa:	48 ba 4e 53 20 69 73 	movabs $0x6e7520736920534e,%rdx
  402d01:	20 75 6e 
  402d04:	49 89 04 24          	mov    %rax,(%r12)
  402d08:	49 89 54 24 08       	mov    %rdx,0x8(%r12)
  402d0d:	48 b8 61 62 6c 65 20 	movabs $0x206f7420656c6261,%rax
  402d14:	74 6f 20 
  402d17:	48 ba 72 65 73 6f 6c 	movabs $0x2065766c6f736572,%rdx
  402d1e:	76 65 20 
  402d21:	49 89 44 24 10       	mov    %rax,0x10(%r12)
  402d26:	49 89 54 24 18       	mov    %rdx,0x18(%r12)
  402d2b:	48 b8 73 65 72 76 65 	movabs $0x6120726576726573,%rax
  402d32:	72 20 61 
  402d35:	49 89 44 24 20       	mov    %rax,0x20(%r12)
  402d3a:	41 c7 44 24 28 64 64 	movl   $0x65726464,0x28(%r12)
  402d41:	72 65 
  402d43:	66 41 c7 44 24 2c 73 	movw   $0x7373,0x2c(%r12)
  402d4a:	73 
  402d4b:	41 c6 44 24 2e 00    	movb   $0x0,0x2e(%r12)
  402d51:	89 df                	mov    %ebx,%edi
  402d53:	e8 c8 df ff ff       	callq  400d20 <close@plt>
  402d58:	b8 ff ff ff ff       	mov    $0xffffffff,%eax
  402d5d:	e9 1e ff ff ff       	jmpq   402c80 <init_driver+0xea>
  402d62:	48 b8 45 72 72 6f 72 	movabs $0x55203a726f727245,%rax
  402d69:	3a 20 55 
  402d6c:	48 ba 6e 61 62 6c 65 	movabs $0x6f7420656c62616e,%rdx
  402d73:	20 74 6f 
  402d76:	49 89 04 24          	mov    %rax,(%r12)
  402d7a:	49 89 54 24 08       	mov    %rdx,0x8(%r12)
  402d7f:	48 b8 20 63 6f 6e 6e 	movabs $0x7463656e6e6f6320,%rax
  402d86:	65 63 74 
  402d89:	48 ba 20 74 6f 20 73 	movabs $0x76726573206f7420,%rdx
  402d90:	65 72 76 
  402d93:	49 89 44 24 10       	mov    %rax,0x10(%r12)
  402d98:	49 89 54 24 18       	mov    %rdx,0x18(%r12)
  402d9d:	66 41 c7 44 24 20 65 	movw   $0x7265,0x20(%r12)
  402da4:	72 
  402da5:	41 c6 44 24 22 00    	movb   $0x0,0x22(%r12)
  402dab:	89 df                	mov    %ebx,%edi
  402dad:	e8 6e df ff ff       	callq  400d20 <close@plt>
  402db2:	b8 ff ff ff ff       	mov    $0xffffffff,%eax
  402db7:	e9 c4 fe ff ff       	jmpq   402c80 <init_driver+0xea>
  402dbc:	e8 1f df ff ff       	callq  400ce0 <__stack_chk_fail@plt>

0000000000402dc1 <driver_post>:
  402dc1:	53                   	push   %rbx
  402dc2:	4c 89 cb             	mov    %r9,%rbx
  402dc5:	45 85 c0             	test   %r8d,%r8d
  402dc8:	75 18                	jne    402de2 <driver_post+0x21>
  402dca:	48 85 ff             	test   %rdi,%rdi
  402dcd:	74 05                	je     402dd4 <driver_post+0x13>
  402dcf:	80 3f 00             	cmpb   $0x0,(%rdi)
  402dd2:	75 37                	jne    402e0b <driver_post+0x4a>
  402dd4:	66 c7 03 4f 4b       	movw   $0x4b4f,(%rbx)
  402dd9:	c6 43 02 00          	movb   $0x0,0x2(%rbx)
  402ddd:	44 89 c0             	mov    %r8d,%eax
  402de0:	5b                   	pop    %rbx
  402de1:	c3                   	retq   
  402de2:	48 89 ca             	mov    %rcx,%rdx
  402de5:	48 8d 35 ef 08 00 00 	lea    0x8ef(%rip),%rsi        # 4036db <trans_char+0xdb>
  402dec:	bf 01 00 00 00       	mov    $0x1,%edi
  402df1:	b8 00 00 00 00       	mov    $0x0,%eax
  402df6:	e8 e5 df ff ff       	callq  400de0 <__printf_chk@plt>
  402dfb:	66 c7 03 4f 4b       	movw   $0x4b4f,(%rbx)
  402e00:	c6 43 02 00          	movb   $0x0,0x2(%rbx)
  402e04:	b8 00 00 00 00       	mov    $0x0,%eax
  402e09:	eb d5                	jmp    402de0 <driver_post+0x1f>
  402e0b:	48 83 ec 08          	sub    $0x8,%rsp
  402e0f:	41 51                	push   %r9
  402e11:	49 89 c9             	mov    %rcx,%r9
  402e14:	49 89 d0             	mov    %rdx,%r8
  402e17:	48 89 f9             	mov    %rdi,%rcx
  402e1a:	48 89 f2             	mov    %rsi,%rdx
  402e1d:	be 09 77 00 00       	mov    $0x7709,%esi
  402e22:	48 8d 3d a3 08 00 00 	lea    0x8a3(%rip),%rdi        # 4036cc <trans_char+0xcc>
  402e29:	e8 b9 f5 ff ff       	callq  4023e7 <submitr>
  402e2e:	48 83 c4 10          	add    $0x10,%rsp
  402e32:	eb ac                	jmp    402de0 <driver_post+0x1f>

0000000000402e34 <check>:
  402e34:	89 f8                	mov    %edi,%eax
  402e36:	c1 e8 1c             	shr    $0x1c,%eax
  402e39:	85 c0                	test   %eax,%eax
  402e3b:	74 1d                	je     402e5a <check+0x26>
  402e3d:	b9 00 00 00 00       	mov    $0x0,%ecx
  402e42:	83 f9 1f             	cmp    $0x1f,%ecx
  402e45:	7f 0d                	jg     402e54 <check+0x20>
  402e47:	89 f8                	mov    %edi,%eax
  402e49:	d3 e8                	shr    %cl,%eax
  402e4b:	3c 0a                	cmp    $0xa,%al
  402e4d:	74 11                	je     402e60 <check+0x2c>
  402e4f:	83 c1 08             	add    $0x8,%ecx
  402e52:	eb ee                	jmp    402e42 <check+0xe>
  402e54:	b8 01 00 00 00       	mov    $0x1,%eax
  402e59:	c3                   	retq   
  402e5a:	b8 00 00 00 00       	mov    $0x0,%eax
  402e5f:	c3                   	retq   
  402e60:	b8 00 00 00 00       	mov    $0x0,%eax
  402e65:	c3                   	retq   

0000000000402e66 <gencookie>:
  402e66:	53                   	push   %rbx
  402e67:	83 c7 01             	add    $0x1,%edi
  402e6a:	e8 21 de ff ff       	callq  400c90 <srandom@plt>
  402e6f:	e8 2c df ff ff       	callq  400da0 <random@plt>
  402e74:	89 c3                	mov    %eax,%ebx
  402e76:	89 c7                	mov    %eax,%edi
  402e78:	e8 b7 ff ff ff       	callq  402e34 <check>
  402e7d:	85 c0                	test   %eax,%eax
  402e7f:	74 ee                	je     402e6f <gencookie+0x9>
  402e81:	89 d8                	mov    %ebx,%eax
  402e83:	5b                   	pop    %rbx
  402e84:	c3                   	retq   
  402e85:	66 2e 0f 1f 84 00 00 	nopw   %cs:0x0(%rax,%rax,1)
  402e8c:	00 00 00 
  402e8f:	90                   	nop

0000000000402e90 <__libc_csu_init>:
  402e90:	41 57                	push   %r15
  402e92:	41 56                	push   %r14
  402e94:	49 89 d7             	mov    %rdx,%r15
  402e97:	41 55                	push   %r13
  402e99:	41 54                	push   %r12
  402e9b:	4c 8d 25 6e 0f 20 00 	lea    0x200f6e(%rip),%r12        # 603e10 <__frame_dummy_init_array_entry>
  402ea2:	55                   	push   %rbp
  402ea3:	48 8d 2d 6e 0f 20 00 	lea    0x200f6e(%rip),%rbp        # 603e18 <__do_global_dtors_aux_fini_array_entry>
  402eaa:	53                   	push   %rbx
  402eab:	41 89 fd             	mov    %edi,%r13d
  402eae:	49 89 f6             	mov    %rsi,%r14
  402eb1:	4c 29 e5             	sub    %r12,%rbp
  402eb4:	48 83 ec 08          	sub    $0x8,%rsp
  402eb8:	48 c1 fd 03          	sar    $0x3,%rbp
  402ebc:	e8 87 dd ff ff       	callq  400c48 <_init>
  402ec1:	48 85 ed             	test   %rbp,%rbp
  402ec4:	74 20                	je     402ee6 <__libc_csu_init+0x56>
  402ec6:	31 db                	xor    %ebx,%ebx
  402ec8:	0f 1f 84 00 00 00 00 	nopl   0x0(%rax,%rax,1)
  402ecf:	00 
  402ed0:	4c 89 fa             	mov    %r15,%rdx
  402ed3:	4c 89 f6             	mov    %r14,%rsi
  402ed6:	44 89 ef             	mov    %r13d,%edi
  402ed9:	41 ff 14 dc          	callq  *(%r12,%rbx,8)
  402edd:	48 83 c3 01          	add    $0x1,%rbx
  402ee1:	48 39 dd             	cmp    %rbx,%rbp
  402ee4:	75 ea                	jne    402ed0 <__libc_csu_init+0x40>
  402ee6:	48 83 c4 08          	add    $0x8,%rsp
  402eea:	5b                   	pop    %rbx
  402eeb:	5d                   	pop    %rbp
  402eec:	41 5c                	pop    %r12
  402eee:	41 5d                	pop    %r13
  402ef0:	41 5e                	pop    %r14
  402ef2:	41 5f                	pop    %r15
  402ef4:	c3                   	retq   
  402ef5:	90                   	nop
  402ef6:	66 2e 0f 1f 84 00 00 	nopw   %cs:0x0(%rax,%rax,1)
  402efd:	00 00 00 

0000000000402f00 <__libc_csu_fini>:
  402f00:	f3 c3                	repz retq 

Disassembly of section .fini:

0000000000402f04 <_fini>:
  402f04:	48 83 ec 08          	sub    $0x8,%rsp
  402f08:	48 83 c4 08          	add    $0x8,%rsp
  402f0c:	c3                   	retq   
