st20210203@taurus10:~/bomb109$ objdump -d bomb

bomb:     file format elf64-x86-64


Disassembly of section .init:

0000000000000e78 <_init>:
 e78:	48 83 ec 08          	sub    $0x8,%rsp
 e7c:	48 8b 05 65 31 20 00 	mov    0x203165(%rip),%rax        # 203fe8 <__gmon_start__>
 e83:	48 85 c0             	test   %rax,%rax
 e86:	74 02                	je     e8a <_init+0x12>
 e88:	ff d0                	callq  *%rax
 e8a:	48 83 c4 08          	add    $0x8,%rsp
 e8e:	c3                   	retq   

Disassembly of section .plt:

0000000000000e90 <.plt>:
     e90:	ff 35 5a 30 20 00    	pushq  0x20305a(%rip)        # 203ef0 <_GLOBAL_OFFSET_TABLE_+0x8>
     e96:	ff 25 5c 30 20 00    	jmpq   *0x20305c(%rip)        # 203ef8 <_GLOBAL_OFFSET_TABLE_+0x10>
     e9c:	0f 1f 40 00          	nopl   0x0(%rax)

0000000000000ea0 <getenv@plt>:
     ea0:	ff 25 5a 30 20 00    	jmpq   *0x20305a(%rip)        # 203f00 <getenv@GLIBC_2.2.5>
     ea6:	68 00 00 00 00       	pushq  $0x0
     eab:	e9 e0 ff ff ff       	jmpq   e90 <.plt>

0000000000000eb0 <strcasecmp@plt>:
     eb0:	ff 25 52 30 20 00    	jmpq   *0x203052(%rip)        # 203f08 <strcasecmp@GLIBC_2.2.5>
     eb6:	68 01 00 00 00       	pushq  $0x1
     ebb:	e9 d0 ff ff ff       	jmpq   e90 <.plt>

0000000000000ec0 <__errno_location@plt>:
     ec0:	ff 25 4a 30 20 00    	jmpq   *0x20304a(%rip)        # 203f10 <__errno_location@GLIBC_2.2.5>
     ec6:	68 02 00 00 00       	pushq  $0x2
     ecb:	e9 c0 ff ff ff       	jmpq   e90 <.plt>

0000000000000ed0 <strcpy@plt>:
     ed0:	ff 25 42 30 20 00    	jmpq   *0x203042(%rip)        # 203f18 <strcpy@GLIBC_2.2.5>
     ed6:	68 03 00 00 00       	pushq  $0x3
     edb:	e9 b0 ff ff ff       	jmpq   e90 <.plt>

0000000000000ee0 <puts@plt>:
     ee0:	ff 25 3a 30 20 00    	jmpq   *0x20303a(%rip)        # 203f20 <puts@GLIBC_2.2.5>
     ee6:	68 04 00 00 00       	pushq  $0x4
     eeb:	e9 a0 ff ff ff       	jmpq   e90 <.plt>

0000000000000ef0 <write@plt>:
     ef0:	ff 25 32 30 20 00    	jmpq   *0x203032(%rip)        # 203f28 <write@GLIBC_2.2.5>
     ef6:	68 05 00 00 00       	pushq  $0x5
     efb:	e9 90 ff ff ff       	jmpq   e90 <.plt>

0000000000000f00 <__stack_chk_fail@plt>:
     f00:	ff 25 2a 30 20 00    	jmpq   *0x20302a(%rip)        # 203f30 <__stack_chk_fail@GLIBC_2.4>
     f06:	68 06 00 00 00       	pushq  $0x6
     f0b:	e9 80 ff ff ff       	jmpq   e90 <.plt>

0000000000000f10 <alarm@plt>:
     f10:	ff 25 22 30 20 00    	jmpq   *0x203022(%rip)        # 203f38 <alarm@GLIBC_2.2.5>
     f16:	68 07 00 00 00       	pushq  $0x7
     f1b:	e9 70 ff ff ff       	jmpq   e90 <.plt>

0000000000000f20 <close@plt>:
     f20:	ff 25 1a 30 20 00    	jmpq   *0x20301a(%rip)        # 203f40 <close@GLIBC_2.2.5>
     f26:	68 08 00 00 00       	pushq  $0x8
     f2b:	e9 60 ff ff ff       	jmpq   e90 <.plt>

0000000000000f30 <read@plt>:
     f30:	ff 25 12 30 20 00    	jmpq   *0x203012(%rip)        # 203f48 <read@GLIBC_2.2.5>
     f36:	68 09 00 00 00       	pushq  $0x9
     f3b:	e9 50 ff ff ff       	jmpq   e90 <.plt>

0000000000000f40 <fgets@plt>:
     f40:	ff 25 0a 30 20 00    	jmpq   *0x20300a(%rip)        # 203f50 <fgets@GLIBC_2.2.5>
     f46:	68 0a 00 00 00       	pushq  $0xa
     f4b:	e9 40 ff ff ff       	jmpq   e90 <.plt>

0000000000000f50 <signal@plt>:
     f50:	ff 25 02 30 20 00    	jmpq   *0x203002(%rip)        # 203f58 <signal@GLIBC_2.2.5>
     f56:	68 0b 00 00 00       	pushq  $0xb
     f5b:	e9 30 ff ff ff       	jmpq   e90 <.plt>

0000000000000f60 <gethostbyname@plt>:
     f60:	ff 25 fa 2f 20 00    	jmpq   *0x202ffa(%rip)        # 203f60 <gethostbyname@GLIBC_2.2.5>
     f66:	68 0c 00 00 00       	pushq  $0xc
     f6b:	e9 20 ff ff ff       	jmpq   e90 <.plt>

0000000000000f70 <__memmove_chk@plt>:
     f70:	ff 25 f2 2f 20 00    	jmpq   *0x202ff2(%rip)        # 203f68 <__memmove_chk@GLIBC_2.3.4>
     f76:	68 0d 00 00 00       	pushq  $0xd
     f7b:	e9 10 ff ff ff       	jmpq   e90 <.plt>

0000000000000f80 <strtol@plt>:
     f80:	ff 25 ea 2f 20 00    	jmpq   *0x202fea(%rip)        # 203f70 <strtol@GLIBC_2.2.5>
     f86:	68 0e 00 00 00       	pushq  $0xe
     f8b:	e9 00 ff ff ff       	jmpq   e90 <.plt>

0000000000000f90 <fflush@plt>:
     f90:	ff 25 e2 2f 20 00    	jmpq   *0x202fe2(%rip)        # 203f78 <fflush@GLIBC_2.2.5>
     f96:	68 0f 00 00 00       	pushq  $0xf
     f9b:	e9 f0 fe ff ff       	jmpq   e90 <.plt>

0000000000000fa0 <__isoc99_sscanf@plt>:
     fa0:	ff 25 da 2f 20 00    	jmpq   *0x202fda(%rip)        # 203f80 <__isoc99_sscanf@GLIBC_2.7>
     fa6:	68 10 00 00 00       	pushq  $0x10
     fab:	e9 e0 fe ff ff       	jmpq   e90 <.plt>

0000000000000fb0 <__printf_chk@plt>:
     fb0:	ff 25 d2 2f 20 00    	jmpq   *0x202fd2(%rip)        # 203f88 <__printf_chk@GLIBC_2.3.4>
     fb6:	68 11 00 00 00       	pushq  $0x11
     fbb:	e9 d0 fe ff ff       	jmpq   e90 <.plt>

0000000000000fc0 <fopen@plt>:
     fc0:	ff 25 ca 2f 20 00    	jmpq   *0x202fca(%rip)        # 203f90 <fopen@GLIBC_2.2.5>
     fc6:	68 12 00 00 00       	pushq  $0x12
     fcb:	e9 c0 fe ff ff       	jmpq   e90 <.plt>

0000000000000fd0 <gethostname@plt>:
     fd0:	ff 25 c2 2f 20 00    	jmpq   *0x202fc2(%rip)        # 203f98 <gethostname@GLIBC_2.2.5>
     fd6:	68 13 00 00 00       	pushq  $0x13
     fdb:	e9 b0 fe ff ff       	jmpq   e90 <.plt>

0000000000000fe0 <exit@plt>:
     fe0:	ff 25 ba 2f 20 00    	jmpq   *0x202fba(%rip)        # 203fa0 <exit@GLIBC_2.2.5>
     fe6:	68 14 00 00 00       	pushq  $0x14
     feb:	e9 a0 fe ff ff       	jmpq   e90 <.plt>

0000000000000ff0 <connect@plt>:
     ff0:	ff 25 b2 2f 20 00    	jmpq   *0x202fb2(%rip)        # 203fa8 <connect@GLIBC_2.2.5>
     ff6:	68 15 00 00 00       	pushq  $0x15
     ffb:	e9 90 fe ff ff       	jmpq   e90 <.plt>

0000000000001000 <__fprintf_chk@plt>:
    1000:	ff 25 aa 2f 20 00    	jmpq   *0x202faa(%rip)        # 203fb0 <__fprintf_chk@GLIBC_2.3.4>
    1006:	68 16 00 00 00       	pushq  $0x16
    100b:	e9 80 fe ff ff       	jmpq   e90 <.plt>

0000000000001010 <sleep@plt>:
    1010:	ff 25 a2 2f 20 00    	jmpq   *0x202fa2(%rip)        # 203fb8 <sleep@GLIBC_2.2.5>
    1016:	68 17 00 00 00       	pushq  $0x17
    101b:	e9 70 fe ff ff       	jmpq   e90 <.plt>

0000000000001020 <__ctype_b_loc@plt>:
    1020:	ff 25 9a 2f 20 00    	jmpq   *0x202f9a(%rip)        # 203fc0 <__ctype_b_loc@GLIBC_2.3>
    1026:	68 18 00 00 00       	pushq  $0x18
    102b:	e9 60 fe ff ff       	jmpq   e90 <.plt>

0000000000001030 <__sprintf_chk@plt>:
    1030:	ff 25 92 2f 20 00    	jmpq   *0x202f92(%rip)        # 203fc8 <__sprintf_chk@GLIBC_2.3.4>
    1036:	68 19 00 00 00       	pushq  $0x19
    103b:	e9 50 fe ff ff       	jmpq   e90 <.plt>

0000000000001040 <socket@plt>:
    1040:	ff 25 8a 2f 20 00    	jmpq   *0x202f8a(%rip)        # 203fd0 <socket@GLIBC_2.2.5>
    1046:	68 1a 00 00 00       	pushq  $0x1a
    104b:	e9 40 fe ff ff       	jmpq   e90 <.plt>

Disassembly of section .plt.got:

0000000000001050 <__cxa_finalize@plt>:
    1050:	ff 25 a2 2f 20 00    	jmpq   *0x202fa2(%rip)        # 203ff8 <__cxa_finalize@GLIBC_2.2.5>
    1056:	66 90                	xchg   %ax,%ax

Disassembly of section .text:

0000000000001060 <_start>:
    1060:	31 ed                	xor    %ebp,%ebp
    1062:	49 89 d1             	mov    %rdx,%r9
    1065:	5e                   	pop    %rsi
    1066:	48 89 e2             	mov    %rsp,%rdx
    1069:	48 83 e4 f0          	and    $0xfffffffffffffff0,%rsp
    106d:	50                   	push   %rax
    106e:	54                   	push   %rsp
    106f:	4c 8d 05 7a 1a 00 00 	lea    0x1a7a(%rip),%r8        # 2af0 <__libc_csu_fini>
    1076:	48 8d 0d 03 1a 00 00 	lea    0x1a03(%rip),%rcx        # 2a80 <__libc_csu_init>
    107d:	48 8d 3d e6 00 00 00 	lea    0xe6(%rip),%rdi        # 116a <main>
    1084:	ff 15 56 2f 20 00    	callq  *0x202f56(%rip)        # 203fe0 <__libc_start_main@GLIBC_2.2.5>
    108a:	f4                   	hlt    
    108b:	0f 1f 44 00 00       	nopl   0x0(%rax,%rax,1)

0000000000001090 <deregister_tm_clones>:
    1090:	48 8d 3d 09 36 20 00 	lea    0x203609(%rip),%rdi        # 2046a0 <stdout@@GLIBC_2.2.5>
    1097:	55                   	push   %rbp
    1098:	48 8d 05 01 36 20 00 	lea    0x203601(%rip),%rax        # 2046a0 <stdout@@GLIBC_2.2.5>
    109f:	48 39 f8             	cmp    %rdi,%rax
    10a2:	48 89 e5             	mov    %rsp,%rbp
    10a5:	74 19                	je     10c0 <deregister_tm_clones+0x30>
    10a7:	48 8b 05 2a 2f 20 00 	mov    0x202f2a(%rip),%rax        # 203fd8 <_ITM_deregisterTMCloneTable>
    10ae:	48 85 c0             	test   %rax,%rax
    10b1:	74 0d                	je     10c0 <deregister_tm_clones+0x30>
    10b3:	5d                   	pop    %rbp
    10b4:	ff e0                	jmpq   *%rax
    10b6:	66 2e 0f 1f 84 00 00 	nopw   %cs:0x0(%rax,%rax,1)
    10bd:	00 00 00 
    10c0:	5d                   	pop    %rbp
    10c1:	c3                   	retq   
    10c2:	0f 1f 40 00          	nopl   0x0(%rax)
    10c6:	66 2e 0f 1f 84 00 00 	nopw   %cs:0x0(%rax,%rax,1)
    10cd:	00 00 00 

00000000000010d0 <register_tm_clones>:
    10d0:	48 8d 3d c9 35 20 00 	lea    0x2035c9(%rip),%rdi        # 2046a0 <stdout@@GLIBC_2.2.5>
    10d7:	48 8d 35 c2 35 20 00 	lea    0x2035c2(%rip),%rsi        # 2046a0 <stdout@@GLIBC_2.2.5>
    10de:	55                   	push   %rbp
    10df:	48 29 fe             	sub    %rdi,%rsi
    10e2:	48 89 e5             	mov    %rsp,%rbp
    10e5:	48 c1 fe 03          	sar    $0x3,%rsi
    10e9:	48 89 f0             	mov    %rsi,%rax
    10ec:	48 c1 e8 3f          	shr    $0x3f,%rax
    10f0:	48 01 c6             	add    %rax,%rsi
    10f3:	48 d1 fe             	sar    %rsi
    10f6:	74 18                	je     1110 <register_tm_clones+0x40>
    10f8:	48 8b 05 f1 2e 20 00 	mov    0x202ef1(%rip),%rax        # 203ff0 <_ITM_registerTMCloneTable>
    10ff:	48 85 c0             	test   %rax,%rax
    1102:	74 0c                	je     1110 <register_tm_clones+0x40>
    1104:	5d                   	pop    %rbp
    1105:	ff e0                	jmpq   *%rax
    1107:	66 0f 1f 84 00 00 00 	nopw   0x0(%rax,%rax,1)
    110e:	00 00 
    1110:	5d                   	pop    %rbp
    1111:	c3                   	retq   
    1112:	0f 1f 40 00          	nopl   0x0(%rax)
    1116:	66 2e 0f 1f 84 00 00 	nopw   %cs:0x0(%rax,%rax,1)
    111d:	00 00 00 

0000000000001120 <__do_global_dtors_aux>:
    1120:	80 3d a1 35 20 00 00 	cmpb   $0x0,0x2035a1(%rip)        # 2046c8 <completed.7698>
    1127:	75 2f                	jne    1158 <__do_global_dtors_aux+0x38>
    1129:	48 83 3d c7 2e 20 00 	cmpq   $0x0,0x202ec7(%rip)        # 203ff8 <__cxa_finalize@GLIBC_2.2.5>
    1130:	00 
    1131:	55                   	push   %rbp
    1132:	48 89 e5             	mov    %rsp,%rbp
    1135:	74 0c                	je     1143 <__do_global_dtors_aux+0x23>
    1137:	48 8b 3d ca 2e 20 00 	mov    0x202eca(%rip),%rdi        # 204008 <__dso_handle>
    113e:	e8 0d ff ff ff       	callq  1050 <__cxa_finalize@plt>
    1143:	e8 48 ff ff ff       	callq  1090 <deregister_tm_clones>
    1148:	c6 05 79 35 20 00 01 	movb   $0x1,0x203579(%rip)        # 2046c8 <completed.7698>
    114f:	5d                   	pop    %rbp
    1150:	c3                   	retq   
    1151:	0f 1f 80 00 00 00 00 	nopl   0x0(%rax)
    1158:	f3 c3                	repz retq 
    115a:	66 0f 1f 44 00 00    	nopw   0x0(%rax,%rax,1)

0000000000001160 <frame_dummy>:
    1160:	55                   	push   %rbp
    1161:	48 89 e5             	mov    %rsp,%rbp
    1164:	5d                   	pop    %rbp
    1165:	e9 66 ff ff ff       	jmpq   10d0 <register_tm_clones>

000000000000116a <main>:
    116a:	53                   	push   %rbx
    116b:	83 ff 01             	cmp    $0x1,%edi
    116e:	0f 84 f8 00 00 00    	je     126c <main+0x102>
    1174:	48 89 f3             	mov    %rsi,%rbx
    1177:	83 ff 02             	cmp    $0x2,%edi
    117a:	0f 85 21 01 00 00    	jne    12a1 <main+0x137>
    1180:	48 8b 7e 08          	mov    0x8(%rsi),%rdi
    1184:	48 8d 35 79 19 00 00 	lea    0x1979(%rip),%rsi        # 2b04 <_IO_stdin_used+0x4>
    118b:	e8 30 fe ff ff       	callq  fc0 <fopen@plt>
    1190:	48 89 05 39 35 20 00 	mov    %rax,0x203539(%rip)        # 2046d0 <infile>
    1197:	48 85 c0             	test   %rax,%rax
    119a:	0f 84 df 00 00 00    	je     127f <main+0x115>
    11a0:	e8 8c 07 00 00       	callq  1931 <initialize_bomb>
    11a5:	48 8d 3d dc 19 00 00 	lea    0x19dc(%rip),%rdi        # 2b88 <_IO_stdin_used+0x88>
    11ac:	e8 2f fd ff ff       	callq  ee0 <puts@plt>
    11b1:	48 8d 3d 10 1a 00 00 	lea    0x1a10(%rip),%rdi        # 2bc8 <_IO_stdin_used+0xc8>
    11b8:	e8 23 fd ff ff       	callq  ee0 <puts@plt>
    11bd:	e8 d4 0a 00 00       	callq  1c96 <read_line>
    11c2:	48 89 c7             	mov    %rax,%rdi
    11c5:	e8 fa 00 00 00       	callq  12c4 <phase_1>
    11ca:	e8 0b 0c 00 00       	callq  1dda <phase_defused>
    11cf:	48 8d 3d 22 1a 00 00 	lea    0x1a22(%rip),%rdi        # 2bf8 <_IO_stdin_used+0xf8>
    11d6:	e8 05 fd ff ff       	callq  ee0 <puts@plt>
    11db:	e8 b6 0a 00 00       	callq  1c96 <read_line>
    11e0:	48 89 c7             	mov    %rax,%rdi
    11e3:	e8 fc 00 00 00       	callq  12e4 <phase_2>
    11e8:	e8 ed 0b 00 00       	callq  1dda <phase_defused>
    11ed:	48 8d 3d 49 19 00 00 	lea    0x1949(%rip),%rdi        # 2b3d <_IO_stdin_used+0x3d>
    11f4:	e8 e7 fc ff ff       	callq  ee0 <puts@plt>
    11f9:	e8 98 0a 00 00       	callq  1c96 <read_line>
    11fe:	48 89 c7             	mov    %rax,%rdi
    1201:	e8 58 01 00 00       	callq  135e <phase_3>
    1206:	e8 cf 0b 00 00       	callq  1dda <phase_defused>
    120b:	48 8d 3d 49 19 00 00 	lea    0x1949(%rip),%rdi        # 2b5b <_IO_stdin_used+0x5b>
    1212:	e8 c9 fc ff ff       	callq  ee0 <puts@plt>
    1217:	e8 7a 0a 00 00       	callq  1c96 <read_line>
    121c:	48 89 c7             	mov    %rax,%rdi
    121f:	e8 88 02 00 00       	callq  14ac <phase_4>
    1224:	e8 b1 0b 00 00       	callq  1dda <phase_defused>
    1229:	48 8d 3d f0 19 00 00 	lea    0x19f0(%rip),%rdi        # 2c20 <_IO_stdin_used+0x120>
    1230:	e8 ab fc ff ff       	callq  ee0 <puts@plt>
    1235:	e8 5c 0a 00 00       	callq  1c96 <read_line>
    123a:	48 89 c7             	mov    %rax,%rdi
    123d:	e8 f7 02 00 00       	callq  1539 <phase_5>
    1242:	e8 93 0b 00 00       	callq  1dda <phase_defused>
    1247:	48 8d 3d 1c 19 00 00 	lea    0x191c(%rip),%rdi        # 2b6a <_IO_stdin_used+0x6a>
    124e:	e8 8d fc ff ff       	callq  ee0 <puts@plt>
    1253:	e8 3e 0a 00 00       	callq  1c96 <read_line>
    1258:	48 89 c7             	mov    %rax,%rdi
    125b:	e8 6e 03 00 00       	callq  15ce <phase_6>
    1260:	e8 75 0b 00 00       	callq  1dda <phase_defused>
    1265:	b8 00 00 00 00       	mov    $0x0,%eax
    126a:	5b                   	pop    %rbx
    126b:	c3                   	retq   
    126c:	48 8b 05 3d 34 20 00 	mov    0x20343d(%rip),%rax        # 2046b0 <stdin@@GLIBC_2.2.5>
    1273:	48 89 05 56 34 20 00 	mov    %rax,0x203456(%rip)        # 2046d0 <infile>
    127a:	e9 21 ff ff ff       	jmpq   11a0 <main+0x36>
    127f:	48 8b 4b 08          	mov    0x8(%rbx),%rcx
    1283:	48 8b 13             	mov    (%rbx),%rdx
    1286:	48 8d 35 79 18 00 00 	lea    0x1879(%rip),%rsi        # 2b06 <_IO_stdin_used+0x6>
    128d:	bf 01 00 00 00       	mov    $0x1,%edi
    1292:	e8 19 fd ff ff       	callq  fb0 <__printf_chk@plt>
    1297:	bf 08 00 00 00       	mov    $0x8,%edi
    129c:	e8 3f fd ff ff       	callq  fe0 <exit@plt>
    12a1:	48 8b 16             	mov    (%rsi),%rdx
    12a4:	48 8d 35 78 18 00 00 	lea    0x1878(%rip),%rsi        # 2b23 <_IO_stdin_used+0x23>
    12ab:	bf 01 00 00 00       	mov    $0x1,%edi
    12b0:	b8 00 00 00 00       	mov    $0x0,%eax
    12b5:	e8 f6 fc ff ff       	callq  fb0 <__printf_chk@plt>
    12ba:	bf 08 00 00 00       	mov    $0x8,%edi
    12bf:	e8 1c fd ff ff       	callq  fe0 <exit@plt>

00000000000012c4 <phase_1>:
    12c4:	48 83 ec 08          	sub    $0x8,%rsp
    12c8:	48 8d 35 79 19 00 00 	lea    0x1979(%rip),%rsi        # 2c48 <_IO_stdin_used+0x148>
    12cf:	e8 f6 05 00 00       	callq  18ca <strings_not_equal>
    12d4:	85 c0                	test   %eax,%eax
    12d6:	75 05                	jne    12dd <phase_1+0x19>
    12d8:	48 83 c4 08          	add    $0x8,%rsp
    12dc:	c3                   	retq   
    12dd:	e8 ec 08 00 00       	callq  1bce <explode_bomb>
    12e2:	eb f4                	jmp    12d8 <phase_1+0x14>

00000000000012e4 <phase_2>:
    12e4:	55                   	push   %rbp
    12e5:	53                   	push   %rbx
    12e6:	48 83 ec 28          	sub    $0x28,%rsp
    12ea:	64 48 8b 04 25 28 00 	mov    %fs:0x28,%rax
    12f1:	00 00 
    12f3:	48 89 44 24 18       	mov    %rax,0x18(%rsp)
    12f8:	31 c0                	xor    %eax,%eax
    12fa:	48 89 e6             	mov    %rsp,%rsi
    12fd:	e8 08 09 00 00       	callq  1c0a <read_six_numbers>
    1302:	83 3c 24 0f          	cmpl   $0xf,(%rsp)
    1306:	7f 12                	jg     131a <phase_2+0x36>
    1308:	8b 44 24 04          	mov    0x4(%rsp),%eax
    130c:	39 04 24             	cmp    %eax,(%rsp)
    130f:	75 10                	jne    1321 <phase_2+0x3d>
    1311:	48 89 e3             	mov    %rsp,%rbx
    1314:	48 8d 6b 10          	lea    0x10(%rbx),%rbp
    1318:	eb 17                	jmp    1331 <phase_2+0x4d>
    131a:	e8 af 08 00 00       	callq  1bce <explode_bomb>
    131f:	eb e7                	jmp    1308 <phase_2+0x24>
    1321:	e8 a8 08 00 00       	callq  1bce <explode_bomb>
    1326:	eb e9                	jmp    1311 <phase_2+0x2d>
    1328:	48 83 c3 04          	add    $0x4,%rbx
    132c:	48 39 eb             	cmp    %rbp,%rbx
    132f:	74 11                	je     1342 <phase_2+0x5e>
    1331:	8b 03                	mov    (%rbx),%eax
    1333:	03 43 04             	add    0x4(%rbx),%eax
    1336:	39 43 08             	cmp    %eax,0x8(%rbx)
    1339:	74 ed                	je     1328 <phase_2+0x44>
    133b:	e8 8e 08 00 00       	callq  1bce <explode_bomb>
    1340:	eb e6                	jmp    1328 <phase_2+0x44>
    1342:	48 8b 44 24 18       	mov    0x18(%rsp),%rax
    1347:	64 48 33 04 25 28 00 	xor    %fs:0x28,%rax
    134e:	00 00 
    1350:	75 07                	jne    1359 <phase_2+0x75>
    1352:	48 83 c4 28          	add    $0x28,%rsp
    1356:	5b                   	pop    %rbx
    1357:	5d                   	pop    %rbp
    1358:	c3                   	retq   
    1359:	e8 a2 fb ff ff       	callq  f00 <__stack_chk_fail@plt>

000000000000135e <phase_3>:
    135e:	48 83 ec 28          	sub    $0x28,%rsp
    1362:	64 48 8b 04 25 28 00 	mov    %fs:0x28,%rax
    1369:	00 00 
    136b:	48 89 44 24 18       	mov    %rax,0x18(%rsp)
    1370:	31 c0                	xor    %eax,%eax
    1372:	48 8d 4c 24 10       	lea    0x10(%rsp),%rcx
    1377:	48 8d 54 24 0c       	lea    0xc(%rsp),%rdx
    137c:	4c 8d 44 24 14       	lea    0x14(%rsp),%r8
    1381:	48 8d 35 e8 1b 00 00 	lea    0x1be8(%rip),%rsi        # 2f70 <index.3429+0x290>
    1388:	e8 13 fc ff ff       	callq  fa0 <__isoc99_sscanf@plt>
    138d:	83 f8 02             	cmp    $0x2,%eax
    1390:	7e 40                	jle    13d2 <phase_3+0x74>
    1392:	83 7c 24 0c 09       	cmpl   $0x9,0xc(%rsp)
    1397:	7e 40                	jle    13d9 <phase_3+0x7b>
    1399:	8b 4c 24 0c          	mov    0xc(%rsp),%ecx  #계산 시작
    139d:	ba 67 66 66 66       	mov    $0x66666667,%edx
    13a2:	89 c8                	mov    %ecx,%eax
    13a4:	f7 ea                	imul   %edx
    13a6:	c1 fa 02             	sar    $0x2,%edx
    13a9:	89 c8                	mov    %ecx,%eax
    13ab:	c1 f8 1f             	sar    $0x1f,%eax
    13ae:	29 c2                	sub    %eax,%edx
    13b0:	8d 04 92             	lea    (%rdx,%rdx,4),%eax 
    13b3:	01 c0                	add    %eax,%eax
    13b5:	29 c1                	sub    %eax,%ecx
    13b7:	89 4c 24 0c          	mov    %ecx,0xc(%rsp)
    13bb:	83 f9 07             	cmp    $0x7,%ecx #jump table x = 0~7
    13be:	77 3c                	ja     13fc <phase_3+0x9e>  
    13c0:	89 ca                	mov    %ecx,%edx
    13c2:	48 8d 0d d7 18 00 00 	lea    0x18d7(%rip),%rcx        # 2ca0 <_IO_stdin_used+0x1a0>
    13c9:	48 63 04 91          	movslq (%rcx,%rdx,4),%rax
    13cd:	48 01 c8             	add    %rcx,%rax
    13d0:	ff e0                	jmpq   *%rax #move to the case
    13d2:	e8 f7 07 00 00       	callq  1bce <explode_bomb>
    13d7:	eb b9                	jmp    1392 <phase_3+0x34>
    13d9:	e8 f0 07 00 00       	callq  1bce <explode_bomb>
    13de:	eb b9                	jmp    1399 <phase_3+0x3b>
    13e0:	ba 48 00 00 00       	mov    $0x48,%edx #when x=0
    13e5:	eb 6d                	jmp    1454 <phase_3+0xf6>
    13e7:	ba 5c 00 00 00       	mov    $0x5c,%edx #when x=1
    13ec:	eb 66                	jmp    1454 <phase_3+0xf6>
    13ee:	ba ae 01 00 00       	mov    $0x1ae,%edx
    13f3:	eb 5f                	jmp    1454 <phase_3+0xf6>
    13f5:	ba a5 03 00 00       	mov    $0x3a5,%edx
    13fa:	eb 58                	jmp    1454 <phase_3+0xf6>
    13fc:	e8 cd 07 00 00       	callq  1bce <explode_bomb>
    1401:	ba 00 00 00 00       	mov    $0x0,%edx
    1406:	eb 05                	jmp    140d <phase_3+0xaf>
    1408:	ba a6 03 00 00       	mov    $0x3a6,%edx
    140d:	f6 44 24 0c 03       	testb  $0x3,0xc(%rsp)
    1412:	75 40                	jne    1454 <phase_3+0xf6>
    1414:	8b 44 24 10          	mov    0x10(%rsp),%eax
    1418:	83 c0 05             	add    $0x5,%eax
    141b:	39 54 24 10          	cmp    %edx,0x10(%rsp)
    141f:	75 06                	jne    1427 <phase_3+0xc9>
    1421:	39 44 24 14          	cmp    %eax,0x14(%rsp)
    1425:	74 05                	je     142c <phase_3+0xce>
    1427:	e8 a2 07 00 00       	callq  1bce <explode_bomb>
    142c:	48 8b 44 24 18       	mov    0x18(%rsp),%rax
    1431:	64 48 33 04 25 28 00 	xor    %fs:0x28,%rax
    1438:	00 00 
    143a:	75 21                	jne    145d <phase_3+0xff>
    143c:	48 83 c4 28          	add    $0x28,%rsp
    1440:	c3                   	retq   
    1441:	ba c8 02 00 00       	mov    $0x2c8,%edx
    1446:	eb cc                	jmp    1414 <phase_3+0xb6>
    1448:	ba cd 03 00 00       	mov    $0x3cd,%edx
    144d:	eb 05                	jmp    1454 <phase_3+0xf6>
    144f:	ba 20 02 00 00       	mov    $0x220,%edx
    1454:	8b 44 24 10          	mov    0x10(%rsp),%eax
    1458:	83 c0 07             	add    $0x7,%eax
    145b:	eb be                	jmp    141b <phase_3+0xbd>
    145d:	e8 9e fa ff ff       	callq  f00 <__stack_chk_fail@plt>

0000000000001462 <func4>:
    1462:	83 ff 01             	cmp    $0x1,%edi
    1465:	75 0c                	jne    1473 <func4+0x11>
    1467:	b8 01 00 00 00       	mov    $0x1,%eax
    146c:	83 fe 01             	cmp    $0x1,%esi
    146f:	75 02                	jne    1473 <func4+0x11>
    1471:	f3 c3                	repz retq 
    1473:	48 83 ec 08          	sub    $0x8,%rsp #edi != 1
    1477:	39 f7                	cmp    %esi,%edi
    1479:	7f 17                	jg     1492 <func4+0x30>
    147b:	39 f7                	cmp    %esi,%edi
    147d:	7c 20                	jl     149f <func4+0x3d>
    147f:	83 ee 01             	sub    $0x1,%esi
    1482:	83 ef 01             	sub    $0x1,%edi
    1485:	e8 d8 ff ff ff       	callq  1462 <func4>
    148a:	83 c0 01             	add    $0x1,%eax
    148d:	48 83 c4 08          	add    $0x8,%rsp
    1491:	c3                   	retq   
    1492:	83 ef 01             	sub    $0x1,%edi #edi(x) bigger
    1495:	e8 c8 ff ff ff       	callq  1462 <func4>
    149a:	83 c0 01             	add    $0x1,%eax
    149d:	eb ee                	jmp    148d <func4+0x2b>
    149f:	83 ee 01             	sub    $0x1,%esi #esi(7) bigger
    14a2:	e8 bb ff ff ff       	callq  1462 <func4>
    14a7:	83 c0 01             	add    $0x1,%eax
    14aa:	eb e1                	jmp    148d <func4+0x2b>

00000000000014ac <phase_4>:
    14ac:	48 83 ec 28          	sub    $0x28,%rsp
    14b0:	64 48 8b 04 25 28 00 	mov    %fs:0x28,%rax
    14b7:	00 00 
    14b9:	48 89 44 24 18       	mov    %rax,0x18(%rsp)
    14be:	31 c0                	xor    %eax,%eax
    14c0:	48 8d 4c 24 0c       	lea    0xc(%rsp),%rcx
    14c5:	48 8d 54 24 14       	lea    0x14(%rsp),%rdx
    14ca:	4c 8d 44 24 10       	lea    0x10(%rsp),%r8
    14cf:	48 8d 35 9a 1a 00 00 	lea    0x1a9a(%rip),%rsi        # 2f70 <index.3429+0x290>
    14d6:	e8 c5 fa ff ff       	callq  fa0 <__isoc99_sscanf@plt>
    14db:	83 f8 03             	cmp    $0x3,%eax
    14de:	75 07                	jne    14e7 <phase_4+0x3b>
    14e0:	83 7c 24 0c 0e       	cmpl   $0xe,0xc(%rsp)
    14e5:	76 3d                	jbe    1524 <phase_4+0x78>
    14e7:	e8 e2 06 00 00       	callq  1bce <explode_bomb>
    14ec:	81 7c 24 14 4a 01 00 	cmpl   $0x14a,0x14(%rsp)
    14f3:	00 
    14f4:	75 37                	jne    152d <phase_4+0x81>
    14f6:	be 07 00 00 00       	mov    $0x7,%esi
    14fb:	8b 7c 24 0c          	mov    0xc(%rsp),%edi
    14ff:	e8 5e ff ff ff       	callq  1462 <func4>
    1504:	39 44 24 10          	cmp    %eax,0x10(%rsp)
    1508:	74 05                	je     150f <phase_4+0x63>
    150a:	e8 bf 06 00 00       	callq  1bce <explode_bomb>
    150f:	48 8b 44 24 18       	mov    0x18(%rsp),%rax
    1514:	64 48 33 04 25 28 00 	xor    %fs:0x28,%rax
    151b:	00 00 
    151d:	75 15                	jne    1534 <phase_4+0x88>
    151f:	48 83 c4 28          	add    $0x28,%rsp
    1523:	c3                   	retq   
    1524:	83 7c 24 14 00       	cmpl   $0x0,0x14(%rsp)
    1529:	7f c1                	jg     14ec <phase_4+0x40>
    152b:	eb ba                	jmp    14e7 <phase_4+0x3b>
    152d:	e8 9c 06 00 00       	callq  1bce <explode_bomb>
    1532:	eb c2                	jmp    14f6 <phase_4+0x4a>
    1534:	e8 c7 f9 ff ff       	callq  f00 <__stack_chk_fail@plt>

0000000000001539 <phase_5>:
    1539:	53                   	push   %rbx
    153a:	48 83 ec 10          	sub    $0x10,%rsp
    153e:	48 89 fb             	mov    %rdi,%rbx
    1541:	64 48 8b 04 25 28 00 	mov    %fs:0x28,%rax
    1548:	00 00 
    154a:	48 89 44 24 08       	mov    %rax,0x8(%rsp)
    154f:	31 c0                	xor    %eax,%eax
    1551:	e8 57 03 00 00       	callq  18ad <string_length>
    1556:	83 f8 06             	cmp    $0x6,%eax
    1559:	75 60                	jne    15bb <phase_5+0x82>
    155b:	b8 00 00 00 00       	mov    $0x0,%eax
    1560:	48 8d 35 59 17 00 00 	lea    0x1759(%rip),%rsi        # 2cc0 <array.3428>
    1567:	48 8d 0d 72 17 00 00 	lea    0x1772(%rip),%rcx        # 2ce0 <index.3429>
    156e:	0f b6 14 03          	movzbl (%rbx,%rax,1),%edx
    1572:	83 e2 0f             	and    $0xf,%edx
    1575:	48 63 14 91          	movslq (%rcx,%rdx,4),%rdx
    1579:	0f b6 14 16          	movzbl (%rsi,%rdx,1),%edx
    157d:	88 54 04 01          	mov    %dl,0x1(%rsp,%rax,1)
    1581:	48 83 c0 01          	add    $0x1,%rax
    1585:	48 83 f8 06          	cmp    $0x6,%rax
    1589:	75 e3                	jne    156e <phase_5+0x35>
    158b:	c6 44 24 07 00       	movb   $0x0,0x7(%rsp)
    1590:	48 8d 7c 24 01       	lea    0x1(%rsp),%rdi
    1595:	48 8d 35 fa 16 00 00 	lea    0x16fa(%rip),%rsi        # 2c96 <_IO_stdin_used+0x196>
    159c:	e8 29 03 00 00       	callq  18ca <strings_not_equal>
    15a1:	85 c0                	test   %eax,%eax
    15a3:	75 1d                	jne    15c2 <phase_5+0x89>
    15a5:	48 8b 44 24 08       	mov    0x8(%rsp),%rax
    15aa:	64 48 33 04 25 28 00 	xor    %fs:0x28,%rax
    15b1:	00 00 
    15b3:	75 14                	jne    15c9 <phase_5+0x90>
    15b5:	48 83 c4 10          	add    $0x10,%rsp
    15b9:	5b                   	pop    %rbx
    15ba:	c3                   	retq   
    15bb:	e8 0e 06 00 00       	callq  1bce <explode_bomb>
    15c0:	eb 99                	jmp    155b <phase_5+0x22>
    15c2:	e8 07 06 00 00       	callq  1bce <explode_bomb>
    15c7:	eb dc                	jmp    15a5 <phase_5+0x6c>
    15c9:	e8 32 f9 ff ff       	callq  f00 <__stack_chk_fail@plt>

00000000000015ce <phase_6>:
    15ce:	41 55                	push   %r13
    15d0:	41 54                	push   %r12
    15d2:	55                   	push   %rbp
    15d3:	53                   	push   %rbx
    15d4:	48 83 ec 78          	sub    $0x78,%rsp
    15d8:	64 48 8b 04 25 28 00 	mov    %fs:0x28,%rax
    15df:	00 00 
    15e1:	48 89 44 24 68       	mov    %rax,0x68(%rsp)
    15e6:	31 c0                	xor    %eax,%eax
    15e8:	49 89 e4             	mov    %rsp,%r12
    15eb:	4c 89 e6             	mov    %r12,%rsi
    15ee:	e8 58 06 00 00       	callq  1c4b <eight_input_numbers>
    15f3:	41 bd 00 00 00 00    	mov    $0x0,%r13d
    15f9:	eb 25                	jmp    1620 <phase_6+0x52>
    15fb:	e8 ce 05 00 00       	callq  1bce <explode_bomb>
    1600:	eb 2d                	jmp    162f <phase_6+0x61>
    1602:	83 c3 01             	add    $0x1,%ebx
    1605:	83 fb 07             	cmp    $0x7,%ebx
    1608:	7f 12                	jg     161c <phase_6+0x4e>
    160a:	48 63 c3             	movslq %ebx,%rax
    160d:	8b 04 84             	mov    (%rsp,%rax,4),%eax
    1610:	39 45 00             	cmp    %eax,0x0(%rbp)
    1613:	75 ed                	jne    1602 <phase_6+0x34>
    1615:	e8 b4 05 00 00       	callq  1bce <explode_bomb>
    161a:	eb e6                	jmp    1602 <phase_6+0x34>
    161c:	49 83 c4 04          	add    $0x4,%r12
    1620:	4c 89 e5             	mov    %r12,%rbp
    1623:	41 8b 04 24          	mov    (%r12),%eax
    1627:	83 e8 01             	sub    $0x1,%eax
    162a:	83 f8 07             	cmp    $0x7,%eax
    162d:	77 cc                	ja     15fb <phase_6+0x2d>
    162f:	41 83 c5 01          	add    $0x1,%r13d
    1633:	41 83 fd 08          	cmp    $0x8,%r13d
    1637:	74 05                	je     163e <phase_6+0x70>
    1639:	44 89 eb             	mov    %r13d,%ebx
    163c:	eb cc                	jmp    160a <phase_6+0x3c>
    163e:	bb 00 00 00 00       	mov    $0x0,%ebx
    1643:	eb 0f                	jmp    1654 <phase_6+0x86>
    1645:	e8 84 05 00 00       	callq  1bce <explode_bomb>
    164a:	48 83 c3 08          	add    $0x8,%rbx
    164e:	48 83 fb 20          	cmp    $0x20,%rbx
    1652:	74 22                	je     1676 <phase_6+0xa8>
    1654:	8b 04 1c             	mov    (%rsp,%rbx,1),%eax
    1657:	89 c2                	mov    %eax,%edx
    1659:	c1 ea 1f             	shr    $0x1f,%edx
    165c:	01 d0                	add    %edx,%eax
    165e:	83 e0 01             	and    $0x1,%eax
    1661:	29 d0                	sub    %edx,%eax
    1663:	83 f8 01             	cmp    $0x1,%eax
    1666:	75 dd                	jne    1645 <phase_6+0x77>
    1668:	f6 44 1c 04 01       	testb  $0x1,0x4(%rsp,%rbx,1)
    166d:	74 db                	je     164a <phase_6+0x7c>
    166f:	e8 5a 05 00 00       	callq  1bce <explode_bomb>
    1674:	eb d4                	jmp    164a <phase_6+0x7c>
    1676:	b9 00 00 00 00       	mov    $0x0,%ecx
    167b:	49 89 e0             	mov    %rsp,%r8
    167e:	4d 8d 48 04          	lea    0x4(%r8),%r9
    1682:	42 8b 04 01          	mov    (%rcx,%r8,1),%eax
    1686:	89 c6                	mov    %eax,%esi
    1688:	c1 ee 1f             	shr    $0x1f,%esi
    168b:	01 c6                	add    %eax,%esi
    168d:	d1 fe                	sar    %esi
    168f:	89 f7                	mov    %esi,%edi
    1691:	b8 00 00 00 00       	mov    $0x0,%eax
    1696:	48 8d 15 a3 2b 20 00 	lea    0x202ba3(%rip),%rdx        # 204240 <node1>
    169d:	85 f6                	test   %esi,%esi
    169f:	7e 0b                	jle    16ac <phase_6+0xde>
    16a1:	48 8b 52 08          	mov    0x8(%rdx),%rdx
    16a5:	83 c0 01             	add    $0x1,%eax
    16a8:	39 f8                	cmp    %edi,%eax
    16aa:	75 f5                	jne    16a1 <phase_6+0xd3>
    16ac:	48 89 54 4c 20       	mov    %rdx,0x20(%rsp,%rcx,2)
    16b1:	41 8b 14 09          	mov    (%r9,%rcx,1),%edx
    16b5:	89 d0                	mov    %edx,%eax
    16b7:	c1 e8 1f             	shr    $0x1f,%eax
    16ba:	01 d0                	add    %edx,%eax
    16bc:	d1 f8                	sar    %eax
    16be:	89 c6                	mov    %eax,%esi
    16c0:	48 8d 15 89 2b 20 00 	lea    0x202b89(%rip),%rdx        # 204250 <node2>
    16c7:	83 f8 01             	cmp    $0x1,%eax
    16ca:	7e 10                	jle    16dc <phase_6+0x10e>
    16cc:	b8 01 00 00 00       	mov    $0x1,%eax
    16d1:	48 8b 52 08          	mov    0x8(%rdx),%rdx
    16d5:	83 c0 01             	add    $0x1,%eax
    16d8:	39 f0                	cmp    %esi,%eax
    16da:	75 f5                	jne    16d1 <phase_6+0x103>
    16dc:	48 89 54 4c 28       	mov    %rdx,0x28(%rsp,%rcx,2)
    16e1:	48 83 c1 08          	add    $0x8,%rcx
    16e5:	48 83 f9 20          	cmp    $0x20,%rcx
    16e9:	75 97                	jne    1682 <phase_6+0xb4>
    16eb:	48 8b 6c 24 20       	mov    0x20(%rsp),%rbp
    16f0:	48 8b 5c 24 28       	mov    0x28(%rsp),%rbx
    16f5:	48 8b 4c 24 30       	mov    0x30(%rsp),%rcx
    16fa:	48 89 4d 08          	mov    %rcx,0x8(%rbp)
    16fe:	48 8b 54 24 38       	mov    0x38(%rsp),%rdx
    1703:	48 89 53 08          	mov    %rdx,0x8(%rbx)
    1707:	48 8b 44 24 40       	mov    0x40(%rsp),%rax
    170c:	48 89 41 08          	mov    %rax,0x8(%rcx)
    1710:	48 8b 4c 24 48       	mov    0x48(%rsp),%rcx
    1715:	48 89 4a 08          	mov    %rcx,0x8(%rdx)
    1719:	48 8b 54 24 50       	mov    0x50(%rsp),%rdx
    171e:	48 89 50 08          	mov    %rdx,0x8(%rax)
    1722:	48 8b 44 24 58       	mov    0x58(%rsp),%rax
    1727:	48 89 41 08          	mov    %rax,0x8(%rcx)
    172b:	48 c7 42 08 00 00 00 	movq   $0x0,0x8(%rdx)
    1732:	00 
    1733:	48 c7 40 08 00 00 00 	movq   $0x0,0x8(%rax)
    173a:	00 
    173b:	41 bc 03 00 00 00    	mov    $0x3,%r12d
    1741:	eb 1a                	jmp    175d <phase_6+0x18f>
    1743:	e8 86 04 00 00       	callq  1bce <explode_bomb>
    1748:	eb 1e                	jmp    1768 <phase_6+0x19a>
    174a:	e8 7f 04 00 00       	callq  1bce <explode_bomb>
    174f:	41 83 ec 01          	sub    $0x1,%r12d
    1753:	74 1f                	je     1774 <phase_6+0x1a6>
    1755:	48 8b 6d 08          	mov    0x8(%rbp),%rbp
    1759:	48 8b 5b 08          	mov    0x8(%rbx),%rbx
    175d:	48 8b 45 08          	mov    0x8(%rbp),%rax
    1761:	8b 00                	mov    (%rax),%eax
    1763:	39 45 00             	cmp    %eax,0x0(%rbp)
    1766:	7c db                	jl     1743 <phase_6+0x175>
    1768:	48 8b 43 08          	mov    0x8(%rbx),%rax
    176c:	8b 00                	mov    (%rax),%eax
    176e:	39 03                	cmp    %eax,(%rbx)
    1770:	7e dd                	jle    174f <phase_6+0x181>
    1772:	eb d6                	jmp    174a <phase_6+0x17c>
    1774:	48 8b 44 24 68       	mov    0x68(%rsp),%rax
    1779:	64 48 33 04 25 28 00 	xor    %fs:0x28,%rax
    1780:	00 00 
    1782:	75 0b                	jne    178f <phase_6+0x1c1>
    1784:	48 83 c4 78          	add    $0x78,%rsp
    1788:	5b                   	pop    %rbx
    1789:	5d                   	pop    %rbp
    178a:	41 5c                	pop    %r12
    178c:	41 5d                	pop    %r13
    178e:	c3                   	retq   
    178f:	e8 6c f7 ff ff       	callq  f00 <__stack_chk_fail@plt>

0000000000001794 <fun7>:
    1794:	48 85 ff             	test   %rdi,%rdi
    1797:	74 34                	je     17cd <fun7+0x39>
    1799:	48 83 ec 08          	sub    $0x8,%rsp
    179d:	8b 17                	mov    (%rdi),%edx
    179f:	39 f2                	cmp    %esi,%edx
    17a1:	7f 0e                	jg     17b1 <fun7+0x1d>
    17a3:	b8 00 00 00 00       	mov    $0x0,%eax
    17a8:	39 f2                	cmp    %esi,%edx
    17aa:	75 12                	jne    17be <fun7+0x2a>
    17ac:	48 83 c4 08          	add    $0x8,%rsp
    17b0:	c3                   	retq   
    17b1:	48 8b 7f 08          	mov    0x8(%rdi),%rdi
    17b5:	e8 da ff ff ff       	callq  1794 <fun7>
    17ba:	01 c0                	add    %eax,%eax
    17bc:	eb ee                	jmp    17ac <fun7+0x18>
    17be:	48 8b 7f 10          	mov    0x10(%rdi),%rdi
    17c2:	e8 cd ff ff ff       	callq  1794 <fun7>
    17c7:	8d 44 00 01          	lea    0x1(%rax,%rax,1),%eax
    17cb:	eb df                	jmp    17ac <fun7+0x18>
    17cd:	b8 ff ff ff ff       	mov    $0xffffffff,%eax
    17d2:	c3                   	retq   

00000000000017d3 <secret_phase>:
    17d3:	53                   	push   %rbx
    17d4:	e8 bd 04 00 00       	callq  1c96 <read_line>
    17d9:	ba 0a 00 00 00       	mov    $0xa,%edx
    17de:	be 00 00 00 00       	mov    $0x0,%esi
    17e3:	48 89 c7             	mov    %rax,%rdi
    17e6:	e8 95 f7 ff ff       	callq  f80 <strtol@plt>
    17eb:	48 89 c3             	mov    %rax,%rbx
    17ee:	8d 40 ff             	lea    -0x1(%rax),%eax
    17f1:	3d e8 03 00 00       	cmp    $0x3e8,%eax
    17f6:	77 2b                	ja     1823 <secret_phase+0x50>
    17f8:	89 de                	mov    %ebx,%esi
    17fa:	48 8d 3d 5f 29 20 00 	lea    0x20295f(%rip),%rdi        # 204160 <n1>
    1801:	e8 8e ff ff ff       	callq  1794 <fun7>
    1806:	83 f8 05             	cmp    $0x5,%eax #fun7 output == 5
    1809:	74 05                	je     1810 <secret_phase+0x3d>
    180b:	e8 be 03 00 00       	callq  1bce <explode_bomb>
    1810:	48 8d 3d 59 14 00 00 	lea    0x1459(%rip),%rdi        # 2c70 <_IO_stdin_used+0x170>
    1817:	e8 c4 f6 ff ff       	callq  ee0 <puts@plt>
    181c:	e8 b9 05 00 00       	callq  1dda <phase_defused>
    1821:	5b                   	pop    %rbx
    1822:	c3                   	retq   
    1823:	e8 a6 03 00 00       	callq  1bce <explode_bomb>
    1828:	eb ce                	jmp    17f8 <secret_phase+0x25>

000000000000182a <sig_handler>:
    182a:	48 83 ec 08          	sub    $0x8,%rsp
    182e:	48 8d 3d eb 14 00 00 	lea    0x14eb(%rip),%rdi        # 2d20 <index.3429+0x40>
    1835:	e8 a6 f6 ff ff       	callq  ee0 <puts@plt>
    183a:	bf 03 00 00 00       	mov    $0x3,%edi
    183f:	e8 cc f7 ff ff       	callq  1010 <sleep@plt>
    1844:	48 8d 35 9e 16 00 00 	lea    0x169e(%rip),%rsi        # 2ee9 <index.3429+0x209>
    184b:	bf 01 00 00 00       	mov    $0x1,%edi
    1850:	b8 00 00 00 00       	mov    $0x0,%eax
    1855:	e8 56 f7 ff ff       	callq  fb0 <__printf_chk@plt>
    185a:	48 8b 3d 3f 2e 20 00 	mov    0x202e3f(%rip),%rdi        # 2046a0 <stdout@@GLIBC_2.2.5>
    1861:	e8 2a f7 ff ff       	callq  f90 <fflush@plt>
    1866:	bf 01 00 00 00       	mov    $0x1,%edi
    186b:	e8 a0 f7 ff ff       	callq  1010 <sleep@plt>
    1870:	48 8d 3d 7a 16 00 00 	lea    0x167a(%rip),%rdi        # 2ef1 <index.3429+0x211>
    1877:	e8 64 f6 ff ff       	callq  ee0 <puts@plt>
    187c:	bf 10 00 00 00       	mov    $0x10,%edi
    1881:	e8 5a f7 ff ff       	callq  fe0 <exit@plt>

0000000000001886 <invalid_phase>:
    1886:	48 83 ec 08          	sub    $0x8,%rsp
    188a:	48 89 fa             	mov    %rdi,%rdx
    188d:	48 8d 35 65 16 00 00 	lea    0x1665(%rip),%rsi        # 2ef9 <index.3429+0x219>
    1894:	bf 01 00 00 00       	mov    $0x1,%edi
    1899:	b8 00 00 00 00       	mov    $0x0,%eax
    189e:	e8 0d f7 ff ff       	callq  fb0 <__printf_chk@plt>
    18a3:	bf 08 00 00 00       	mov    $0x8,%edi
    18a8:	e8 33 f7 ff ff       	callq  fe0 <exit@plt>

00000000000018ad <string_length>:
    18ad:	80 3f 00             	cmpb   $0x0,(%rdi)
    18b0:	74 12                	je     18c4 <string_length+0x17>
    18b2:	48 89 fa             	mov    %rdi,%rdx
    18b5:	48 83 c2 01          	add    $0x1,%rdx
    18b9:	89 d0                	mov    %edx,%eax
    18bb:	29 f8                	sub    %edi,%eax
    18bd:	80 3a 00             	cmpb   $0x0,(%rdx)
    18c0:	75 f3                	jne    18b5 <string_length+0x8>
    18c2:	f3 c3                	repz retq 
    18c4:	b8 00 00 00 00       	mov    $0x0,%eax
    18c9:	c3                   	retq   

00000000000018ca <strings_not_equal>:
    18ca:	41 54                	push   %r12
    18cc:	55                   	push   %rbp
    18cd:	53                   	push   %rbx
    18ce:	48 89 fb             	mov    %rdi,%rbx
    18d1:	48 89 f5             	mov    %rsi,%rbp
    18d4:	e8 d4 ff ff ff       	callq  18ad <string_length>
    18d9:	41 89 c4             	mov    %eax,%r12d
    18dc:	48 89 ef             	mov    %rbp,%rdi
    18df:	e8 c9 ff ff ff       	callq  18ad <string_length>
    18e4:	ba 01 00 00 00       	mov    $0x1,%edx
    18e9:	41 39 c4             	cmp    %eax,%r12d
    18ec:	74 07                	je     18f5 <strings_not_equal+0x2b>
    18ee:	89 d0                	mov    %edx,%eax
    18f0:	5b                   	pop    %rbx
    18f1:	5d                   	pop    %rbp
    18f2:	41 5c                	pop    %r12
    18f4:	c3                   	retq   
    18f5:	0f b6 03             	movzbl (%rbx),%eax
    18f8:	84 c0                	test   %al,%al
    18fa:	74 27                	je     1923 <strings_not_equal+0x59>
    18fc:	3a 45 00             	cmp    0x0(%rbp),%al
    18ff:	75 29                	jne    192a <strings_not_equal+0x60>
    1901:	48 83 c3 01          	add    $0x1,%rbx
    1905:	48 83 c5 01          	add    $0x1,%rbp
    1909:	0f b6 03             	movzbl (%rbx),%eax
    190c:	84 c0                	test   %al,%al
    190e:	74 0c                	je     191c <strings_not_equal+0x52>
    1910:	38 45 00             	cmp    %al,0x0(%rbp)
    1913:	74 ec                	je     1901 <strings_not_equal+0x37>
    1915:	ba 01 00 00 00       	mov    $0x1,%edx
    191a:	eb d2                	jmp    18ee <strings_not_equal+0x24>
    191c:	ba 00 00 00 00       	mov    $0x0,%edx
    1921:	eb cb                	jmp    18ee <strings_not_equal+0x24>
    1923:	ba 00 00 00 00       	mov    $0x0,%edx
    1928:	eb c4                	jmp    18ee <strings_not_equal+0x24>
    192a:	ba 01 00 00 00       	mov    $0x1,%edx
    192f:	eb bd                	jmp    18ee <strings_not_equal+0x24>

0000000000001931 <initialize_bomb>:
    1931:	55                   	push   %rbp
    1932:	53                   	push   %rbx
    1933:	48 81 ec 58 20 00 00 	sub    $0x2058,%rsp
    193a:	64 48 8b 04 25 28 00 	mov    %fs:0x28,%rax
    1941:	00 00 
    1943:	48 89 84 24 48 20 00 	mov    %rax,0x2048(%rsp)
    194a:	00 
    194b:	31 c0                	xor    %eax,%eax
    194d:	48 8d 35 d6 fe ff ff 	lea    -0x12a(%rip),%rsi        # 182a <sig_handler>
    1954:	bf 02 00 00 00       	mov    $0x2,%edi
    1959:	e8 f2 f5 ff ff       	callq  f50 <signal@plt>
    195e:	48 89 e7             	mov    %rsp,%rdi
    1961:	be 40 00 00 00       	mov    $0x40,%esi
    1966:	e8 65 f6 ff ff       	callq  fd0 <gethostname@plt>
    196b:	85 c0                	test   %eax,%eax
    196d:	75 45                	jne    19b4 <initialize_bomb+0x83>
    196f:	48 8b 3d 2a 29 20 00 	mov    0x20292a(%rip),%rdi        # 2042a0 <host_table>
    1976:	48 8d 1d 2b 29 20 00 	lea    0x20292b(%rip),%rbx        # 2042a8 <host_table+0x8>
    197d:	48 89 e5             	mov    %rsp,%rbp
    1980:	48 85 ff             	test   %rdi,%rdi
    1983:	74 19                	je     199e <initialize_bomb+0x6d>
    1985:	48 89 ee             	mov    %rbp,%rsi
    1988:	e8 23 f5 ff ff       	callq  eb0 <strcasecmp@plt>
    198d:	85 c0                	test   %eax,%eax
    198f:	74 5e                	je     19ef <initialize_bomb+0xbe>
    1991:	48 83 c3 08          	add    $0x8,%rbx
    1995:	48 8b 7b f8          	mov    -0x8(%rbx),%rdi
    1999:	48 85 ff             	test   %rdi,%rdi
    199c:	75 e7                	jne    1985 <initialize_bomb+0x54>
    199e:	48 8d 3d eb 13 00 00 	lea    0x13eb(%rip),%rdi        # 2d90 <index.3429+0xb0>
    19a5:	e8 36 f5 ff ff       	callq  ee0 <puts@plt>
    19aa:	bf 08 00 00 00       	mov    $0x8,%edi
    19af:	e8 2c f6 ff ff       	callq  fe0 <exit@plt>
    19b4:	48 8d 3d 9d 13 00 00 	lea    0x139d(%rip),%rdi        # 2d58 <index.3429+0x78>
    19bb:	e8 20 f5 ff ff       	callq  ee0 <puts@plt>
    19c0:	bf 08 00 00 00       	mov    $0x8,%edi
    19c5:	e8 16 f6 ff ff       	callq  fe0 <exit@plt>
    19ca:	48 8d 54 24 40       	lea    0x40(%rsp),%rdx
    19cf:	48 8d 35 34 15 00 00 	lea    0x1534(%rip),%rsi        # 2f0a <index.3429+0x22a>
    19d6:	bf 01 00 00 00       	mov    $0x1,%edi
    19db:	b8 00 00 00 00       	mov    $0x0,%eax
    19e0:	e8 cb f5 ff ff       	callq  fb0 <__printf_chk@plt>
    19e5:	bf 08 00 00 00       	mov    $0x8,%edi
    19ea:	e8 f1 f5 ff ff       	callq  fe0 <exit@plt>
    19ef:	48 8d 7c 24 40       	lea    0x40(%rsp),%rdi
    19f4:	e8 02 0e 00 00       	callq  27fb <init_driver>
    19f9:	85 c0                	test   %eax,%eax
    19fb:	78 cd                	js     19ca <initialize_bomb+0x99>
    19fd:	48 8b 84 24 48 20 00 	mov    0x2048(%rsp),%rax
    1a04:	00 
    1a05:	64 48 33 04 25 28 00 	xor    %fs:0x28,%rax
    1a0c:	00 00 
    1a0e:	75 0a                	jne    1a1a <initialize_bomb+0xe9>
    1a10:	48 81 c4 58 20 00 00 	add    $0x2058,%rsp
    1a17:	5b                   	pop    %rbx
    1a18:	5d                   	pop    %rbp
    1a19:	c3                   	retq   
    1a1a:	e8 e1 f4 ff ff       	callq  f00 <__stack_chk_fail@plt>

0000000000001a1f <initialize_bomb_solve>:
    1a1f:	f3 c3                	repz retq 

0000000000001a21 <blank_line>:
    1a21:	55                   	push   %rbp
    1a22:	53                   	push   %rbx
    1a23:	48 83 ec 08          	sub    $0x8,%rsp
    1a27:	48 89 fd             	mov    %rdi,%rbp
    1a2a:	0f b6 5d 00          	movzbl 0x0(%rbp),%ebx
    1a2e:	84 db                	test   %bl,%bl
    1a30:	74 1e                	je     1a50 <blank_line+0x2f>
    1a32:	e8 e9 f5 ff ff       	callq  1020 <__ctype_b_loc@plt>
    1a37:	48 83 c5 01          	add    $0x1,%rbp
    1a3b:	48 0f be db          	movsbq %bl,%rbx
    1a3f:	48 8b 00             	mov    (%rax),%rax
    1a42:	f6 44 58 01 20       	testb  $0x20,0x1(%rax,%rbx,2)
    1a47:	75 e1                	jne    1a2a <blank_line+0x9>
    1a49:	b8 00 00 00 00       	mov    $0x0,%eax
    1a4e:	eb 05                	jmp    1a55 <blank_line+0x34>
    1a50:	b8 01 00 00 00       	mov    $0x1,%eax
    1a55:	48 83 c4 08          	add    $0x8,%rsp
    1a59:	5b                   	pop    %rbx
    1a5a:	5d                   	pop    %rbp
    1a5b:	c3                   	retq   

0000000000001a5c <skip>:
    1a5c:	55                   	push   %rbp
    1a5d:	53                   	push   %rbx
    1a5e:	48 83 ec 08          	sub    $0x8,%rsp
    1a62:	48 8d 2d 77 2c 20 00 	lea    0x202c77(%rip),%rbp        # 2046e0 <input_strings>
    1a69:	48 63 05 5c 2c 20 00 	movslq 0x202c5c(%rip),%rax        # 2046cc <num_input_strings>
    1a70:	48 8d 3c 80          	lea    (%rax,%rax,4),%rdi
    1a74:	48 c1 e7 04          	shl    $0x4,%rdi
    1a78:	48 01 ef             	add    %rbp,%rdi
    1a7b:	48 8b 15 4e 2c 20 00 	mov    0x202c4e(%rip),%rdx        # 2046d0 <infile>
    1a82:	be 50 00 00 00       	mov    $0x50,%esi
    1a87:	e8 b4 f4 ff ff       	callq  f40 <fgets@plt>
    1a8c:	48 89 c3             	mov    %rax,%rbx
    1a8f:	48 85 c0             	test   %rax,%rax
    1a92:	74 0c                	je     1aa0 <skip+0x44>
    1a94:	48 89 c7             	mov    %rax,%rdi
    1a97:	e8 85 ff ff ff       	callq  1a21 <blank_line>
    1a9c:	85 c0                	test   %eax,%eax
    1a9e:	75 c9                	jne    1a69 <skip+0xd>
    1aa0:	48 89 d8             	mov    %rbx,%rax
    1aa3:	48 83 c4 08          	add    $0x8,%rsp
    1aa7:	5b                   	pop    %rbx
    1aa8:	5d                   	pop    %rbp
    1aa9:	c3                   	retq   

0000000000001aaa <send_msg>:
    1aaa:	53                   	push   %rbx
    1aab:	48 81 ec 10 40 00 00 	sub    $0x4010,%rsp
    1ab2:	41 89 f8             	mov    %edi,%r8d
    1ab5:	64 48 8b 04 25 28 00 	mov    %fs:0x28,%rax
    1abc:	00 00 
    1abe:	48 89 84 24 08 40 00 	mov    %rax,0x4008(%rsp)
    1ac5:	00 
    1ac6:	31 c0                	xor    %eax,%eax
    1ac8:	8b 35 fe 2b 20 00    	mov    0x202bfe(%rip),%esi        # 2046cc <num_input_strings>
    1ace:	8d 46 ff             	lea    -0x1(%rsi),%eax
    1ad1:	48 98                	cltq   
    1ad3:	48 8d 14 80          	lea    (%rax,%rax,4),%rdx
    1ad7:	48 c1 e2 04          	shl    $0x4,%rdx
    1adb:	48 8d 05 fe 2b 20 00 	lea    0x202bfe(%rip),%rax        # 2046e0 <input_strings>
    1ae2:	48 01 c2             	add    %rax,%rdx
    1ae5:	48 c7 c1 ff ff ff ff 	mov    $0xffffffffffffffff,%rcx
    1aec:	b8 00 00 00 00       	mov    $0x0,%eax
    1af1:	48 89 d7             	mov    %rdx,%rdi
    1af4:	f2 ae                	repnz scas %es:(%rdi),%al
    1af6:	48 89 c8             	mov    %rcx,%rax
    1af9:	48 f7 d0             	not    %rax
    1afc:	48 83 c0 63          	add    $0x63,%rax
    1b00:	48 3d 00 20 00 00    	cmp    $0x2000,%rax
    1b06:	0f 87 86 00 00 00    	ja     1b92 <send_msg+0xe8>
    1b0c:	45 85 c0             	test   %r8d,%r8d
    1b0f:	4c 8d 0d 0e 14 00 00 	lea    0x140e(%rip),%r9        # 2f24 <index.3429+0x244>
    1b16:	48 8d 05 0f 14 00 00 	lea    0x140f(%rip),%rax        # 2f2c <index.3429+0x24c>
    1b1d:	4c 0f 44 c8          	cmove  %rax,%r9
    1b21:	48 89 e3             	mov    %rsp,%rbx
    1b24:	52                   	push   %rdx
    1b25:	56                   	push   %rsi
    1b26:	44 8b 05 27 26 20 00 	mov    0x202627(%rip),%r8d        # 204154 <bomb_id>
    1b2d:	48 8d 0d 01 14 00 00 	lea    0x1401(%rip),%rcx        # 2f35 <index.3429+0x255>
    1b34:	ba 00 20 00 00       	mov    $0x2000,%edx
    1b39:	be 01 00 00 00       	mov    $0x1,%esi
    1b3e:	48 89 df             	mov    %rbx,%rdi
    1b41:	b8 00 00 00 00       	mov    $0x0,%eax
    1b46:	e8 e5 f4 ff ff       	callq  1030 <__sprintf_chk@plt>
    1b4b:	4c 8d 84 24 10 20 00 	lea    0x2010(%rsp),%r8
    1b52:	00 
    1b53:	b9 00 00 00 00       	mov    $0x0,%ecx
    1b58:	48 89 da             	mov    %rbx,%rdx
    1b5b:	48 8d 35 ce 25 20 00 	lea    0x2025ce(%rip),%rsi        # 204130 <user_password>
    1b62:	48 8d 3d df 25 20 00 	lea    0x2025df(%rip),%rdi        # 204148 <userid>
    1b69:	e8 96 0e 00 00       	callq  2a04 <driver_post>
    1b6e:	48 83 c4 10          	add    $0x10,%rsp
    1b72:	85 c0                	test   %eax,%eax
    1b74:	78 3c                	js     1bb2 <send_msg+0x108>
    1b76:	48 8b 84 24 08 40 00 	mov    0x4008(%rsp),%rax
    1b7d:	00 
    1b7e:	64 48 33 04 25 28 00 	xor    %fs:0x28,%rax
    1b85:	00 00 
    1b87:	75 40                	jne    1bc9 <send_msg+0x11f>
    1b89:	48 81 c4 10 40 00 00 	add    $0x4010,%rsp
    1b90:	5b                   	pop    %rbx
    1b91:	c3                   	retq   
    1b92:	48 8d 35 2f 12 00 00 	lea    0x122f(%rip),%rsi        # 2dc8 <index.3429+0xe8>
    1b99:	bf 01 00 00 00       	mov    $0x1,%edi
    1b9e:	b8 00 00 00 00       	mov    $0x0,%eax
    1ba3:	e8 08 f4 ff ff       	callq  fb0 <__printf_chk@plt>
    1ba8:	bf 08 00 00 00       	mov    $0x8,%edi
    1bad:	e8 2e f4 ff ff       	callq  fe0 <exit@plt>
    1bb2:	48 8d bc 24 00 20 00 	lea    0x2000(%rsp),%rdi
    1bb9:	00 
    1bba:	e8 21 f3 ff ff       	callq  ee0 <puts@plt>
    1bbf:	bf 00 00 00 00       	mov    $0x0,%edi
    1bc4:	e8 17 f4 ff ff       	callq  fe0 <exit@plt>
    1bc9:	e8 32 f3 ff ff       	callq  f00 <__stack_chk_fail@plt>

0000000000001bce <explode_bomb>:
    1bce:	48 83 ec 08          	sub    $0x8,%rsp
    1bd2:	48 8d 3d 68 13 00 00 	lea    0x1368(%rip),%rdi        # 2f41 <index.3429+0x261>
    1bd9:	e8 02 f3 ff ff       	callq  ee0 <puts@plt>
    1bde:	48 8d 3d 65 13 00 00 	lea    0x1365(%rip),%rdi        # 2f4a <index.3429+0x26a>
    1be5:	e8 f6 f2 ff ff       	callq  ee0 <puts@plt>
    1bea:	bf 00 00 00 00       	mov    $0x0,%edi
    1bef:	e8 b6 fe ff ff       	callq  1aaa <send_msg>
    1bf4:	48 8d 3d f5 11 00 00 	lea    0x11f5(%rip),%rdi        # 2df0 <index.3429+0x110>
    1bfb:	e8 e0 f2 ff ff       	callq  ee0 <puts@plt>
    1c00:	bf 08 00 00 00       	mov    $0x8,%edi
    1c05:	e8 d6 f3 ff ff       	callq  fe0 <exit@plt>

0000000000001c0a <read_six_numbers>:
    1c0a:	48 83 ec 08          	sub    $0x8,%rsp
    1c0e:	48 89 f2             	mov    %rsi,%rdx
    1c11:	48 8d 4e 04          	lea    0x4(%rsi),%rcx
    1c15:	48 8d 46 14          	lea    0x14(%rsi),%rax
    1c19:	50                   	push   %rax
    1c1a:	48 8d 46 10          	lea    0x10(%rsi),%rax
    1c1e:	50                   	push   %rax
    1c1f:	4c 8d 4e 0c          	lea    0xc(%rsi),%r9
    1c23:	4c 8d 46 08          	lea    0x8(%rsi),%r8
    1c27:	48 8d 35 39 13 00 00 	lea    0x1339(%rip),%rsi        # 2f67 <index.3429+0x287>
    1c2e:	b8 00 00 00 00       	mov    $0x0,%eax
    1c33:	e8 68 f3 ff ff       	callq  fa0 <__isoc99_sscanf@plt>
    1c38:	48 83 c4 10          	add    $0x10,%rsp
    1c3c:	83 f8 05             	cmp    $0x5,%eax
    1c3f:	7e 05                	jle    1c46 <read_six_numbers+0x3c>
    1c41:	48 83 c4 08          	add    $0x8,%rsp
    1c45:	c3                   	retq   
    1c46:	e8 83 ff ff ff       	callq  1bce <explode_bomb>

0000000000001c4b <eight_input_numbers>:
    1c4b:	48 83 ec 08          	sub    $0x8,%rsp
    1c4f:	48 89 f2             	mov    %rsi,%rdx
    1c52:	48 8d 4e 04          	lea    0x4(%rsi),%rcx
    1c56:	48 8d 46 1c          	lea    0x1c(%rsi),%rax
    1c5a:	50                   	push   %rax
    1c5b:	48 8d 46 18          	lea    0x18(%rsi),%rax
    1c5f:	50                   	push   %rax
    1c60:	48 8d 46 14          	lea    0x14(%rsi),%rax
    1c64:	50                   	push   %rax
    1c65:	48 8d 46 10          	lea    0x10(%rsi),%rax
    1c69:	50                   	push   %rax
    1c6a:	4c 8d 4e 0c          	lea    0xc(%rsi),%r9
    1c6e:	4c 8d 46 08          	lea    0x8(%rsi),%r8
    1c72:	48 8d 35 e8 12 00 00 	lea    0x12e8(%rip),%rsi        # 2f61 <index.3429+0x281>
    1c79:	b8 00 00 00 00       	mov    $0x0,%eax
    1c7e:	e8 1d f3 ff ff       	callq  fa0 <__isoc99_sscanf@plt>
    1c83:	48 83 c4 20          	add    $0x20,%rsp
    1c87:	83 f8 07             	cmp    $0x7,%eax
    1c8a:	7e 05                	jle    1c91 <eight_input_numbers+0x46>
    1c8c:	48 83 c4 08          	add    $0x8,%rsp
    1c90:	c3                   	retq   
    1c91:	e8 38 ff ff ff       	callq  1bce <explode_bomb>

0000000000001c96 <read_line>:
    1c96:	48 83 ec 08          	sub    $0x8,%rsp
    1c9a:	b8 00 00 00 00       	mov    $0x0,%eax
    1c9f:	e8 b8 fd ff ff       	callq  1a5c <skip>
    1ca4:	48 85 c0             	test   %rax,%rax
    1ca7:	74 6f                	je     1d18 <read_line+0x82>
    1ca9:	8b 35 1d 2a 20 00    	mov    0x202a1d(%rip),%esi        # 2046cc <num_input_strings>
    1caf:	48 63 c6             	movslq %esi,%rax
    1cb2:	48 8d 14 80          	lea    (%rax,%rax,4),%rdx
    1cb6:	48 c1 e2 04          	shl    $0x4,%rdx
    1cba:	48 8d 05 1f 2a 20 00 	lea    0x202a1f(%rip),%rax        # 2046e0 <input_strings>
    1cc1:	48 01 c2             	add    %rax,%rdx
    1cc4:	48 c7 c1 ff ff ff ff 	mov    $0xffffffffffffffff,%rcx
    1ccb:	b8 00 00 00 00       	mov    $0x0,%eax
    1cd0:	48 89 d7             	mov    %rdx,%rdi
    1cd3:	f2 ae                	repnz scas %es:(%rdi),%al
    1cd5:	48 f7 d1             	not    %rcx
    1cd8:	48 83 e9 01          	sub    $0x1,%rcx
    1cdc:	83 f9 4e             	cmp    $0x4e,%ecx
    1cdf:	0f 8f ab 00 00 00    	jg     1d90 <read_line+0xfa>
    1ce5:	83 e9 01             	sub    $0x1,%ecx
    1ce8:	48 63 c9             	movslq %ecx,%rcx
    1ceb:	48 63 c6             	movslq %esi,%rax
    1cee:	48 8d 04 80          	lea    (%rax,%rax,4),%rax
    1cf2:	48 c1 e0 04          	shl    $0x4,%rax
    1cf6:	48 89 c7             	mov    %rax,%rdi
    1cf9:	48 8d 05 e0 29 20 00 	lea    0x2029e0(%rip),%rax        # 2046e0 <input_strings>
    1d00:	48 01 f8             	add    %rdi,%rax
    1d03:	c6 04 08 00          	movb   $0x0,(%rax,%rcx,1)
    1d07:	83 c6 01             	add    $0x1,%esi
    1d0a:	89 35 bc 29 20 00    	mov    %esi,0x2029bc(%rip)        # 2046cc <num_input_strings>
    1d10:	48 89 d0             	mov    %rdx,%rax
    1d13:	48 83 c4 08          	add    $0x8,%rsp
    1d17:	c3                   	retq   
    1d18:	48 8b 05 91 29 20 00 	mov    0x202991(%rip),%rax        # 2046b0 <stdin@@GLIBC_2.2.5>
    1d1f:	48 39 05 aa 29 20 00 	cmp    %rax,0x2029aa(%rip)        # 2046d0 <infile>
    1d26:	74 1b                	je     1d43 <read_line+0xad>
    1d28:	48 8d 3d 68 12 00 00 	lea    0x1268(%rip),%rdi        # 2f97 <index.3429+0x2b7>
    1d2f:	e8 6c f1 ff ff       	callq  ea0 <getenv@plt>
    1d34:	48 85 c0             	test   %rax,%rax
    1d37:	74 20                	je     1d59 <read_line+0xc3>
    1d39:	bf 00 00 00 00       	mov    $0x0,%edi
    1d3e:	e8 9d f2 ff ff       	callq  fe0 <exit@plt>
    1d43:	48 8d 3d 2f 12 00 00 	lea    0x122f(%rip),%rdi        # 2f79 <index.3429+0x299>
    1d4a:	e8 91 f1 ff ff       	callq  ee0 <puts@plt>
    1d4f:	bf 08 00 00 00       	mov    $0x8,%edi
    1d54:	e8 87 f2 ff ff       	callq  fe0 <exit@plt>
    1d59:	48 8b 05 50 29 20 00 	mov    0x202950(%rip),%rax        # 2046b0 <stdin@@GLIBC_2.2.5>
    1d60:	48 89 05 69 29 20 00 	mov    %rax,0x202969(%rip)        # 2046d0 <infile>
    1d67:	b8 00 00 00 00       	mov    $0x0,%eax
    1d6c:	e8 eb fc ff ff       	callq  1a5c <skip>
    1d71:	48 85 c0             	test   %rax,%rax
    1d74:	0f 85 2f ff ff ff    	jne    1ca9 <read_line+0x13>
    1d7a:	48 8d 3d f8 11 00 00 	lea    0x11f8(%rip),%rdi        # 2f79 <index.3429+0x299>
    1d81:	e8 5a f1 ff ff       	callq  ee0 <puts@plt>
    1d86:	bf 00 00 00 00       	mov    $0x0,%edi
    1d8b:	e8 50 f2 ff ff       	callq  fe0 <exit@plt>
    1d90:	48 8d 3d 0b 12 00 00 	lea    0x120b(%rip),%rdi        # 2fa2 <index.3429+0x2c2>
    1d97:	e8 44 f1 ff ff       	callq  ee0 <puts@plt>
    1d9c:	8b 05 2a 29 20 00    	mov    0x20292a(%rip),%eax        # 2046cc <num_input_strings>
    1da2:	8d 50 01             	lea    0x1(%rax),%edx
    1da5:	89 15 21 29 20 00    	mov    %edx,0x202921(%rip)        # 2046cc <num_input_strings>
    1dab:	48 98                	cltq   
    1dad:	48 6b c0 50          	imul   $0x50,%rax,%rax
    1db1:	48 8d 15 28 29 20 00 	lea    0x202928(%rip),%rdx        # 2046e0 <input_strings>
    1db8:	48 be 2a 2a 2a 74 72 	movabs $0x636e7572742a2a2a,%rsi
    1dbf:	75 6e 63 
    1dc2:	48 bf 61 74 65 64 2a 	movabs $0x2a2a2a64657461,%rdi
    1dc9:	2a 2a 00 
    1dcc:	48 89 34 02          	mov    %rsi,(%rdx,%rax,1)
    1dd0:	48 89 7c 02 08       	mov    %rdi,0x8(%rdx,%rax,1)
    1dd5:	e8 f4 fd ff ff       	callq  1bce <explode_bomb>

0000000000001dda <phase_defused>:
    1dda:	48 83 ec 78          	sub    $0x78,%rsp
    1dde:	64 48 8b 04 25 28 00 	mov    %fs:0x28,%rax
    1de5:	00 00 
    1de7:	48 89 44 24 68       	mov    %rax,0x68(%rsp)
    1dec:	31 c0                	xor    %eax,%eax
    1dee:	bf 01 00 00 00       	mov    $0x1,%edi
    1df3:	e8 b2 fc ff ff       	callq  1aaa <send_msg>
    1df8:	83 3d cd 28 20 00 06 	cmpl   $0x6,0x2028cd(%rip)        # 2046cc <num_input_strings>
    1dff:	74 19                	je     1e1a <phase_defused+0x40>
    1e01:	48 8b 44 24 68       	mov    0x68(%rsp),%rax
    1e06:	64 48 33 04 25 28 00 	xor    %fs:0x28,%rax
    1e0d:	00 00 
    1e0f:	0f 85 89 00 00 00    	jne    1e9e <phase_defused+0xc4>
    1e15:	48 83 c4 78          	add    $0x78,%rsp
    1e19:	c3                   	retq   
    1e1a:	48 8d 4c 24 08       	lea    0x8(%rsp),%rcx
    1e1f:	48 8d 54 24 04       	lea    0x4(%rsp),%rdx
    1e24:	4c 8d 4c 24 10       	lea    0x10(%rsp),%r9
    1e29:	4c 8d 44 24 0c       	lea    0xc(%rsp),%r8
    1e2e:	48 8d 35 88 11 00 00 	lea    0x1188(%rip),%rsi        # 2fbd <index.3429+0x2dd>
    1e35:	48 8d 3d 44 29 20 00 	lea    0x202944(%rip),%rdi        # 204780 <input_strings+0xa0>
    1e3c:	b8 00 00 00 00       	mov    $0x0,%eax
    1e41:	e8 5a f1 ff ff       	callq  fa0 <__isoc99_sscanf@plt>
    1e46:	83 f8 04             	cmp    $0x4,%eax
    1e49:	74 1a                	je     1e65 <phase_defused+0x8b>
    1e4b:	48 8d 3d 26 10 00 00 	lea    0x1026(%rip),%rdi        # 2e78 <index.3429+0x198>
    1e52:	e8 89 f0 ff ff       	callq  ee0 <puts@plt>
    1e57:	48 8d 3d 4a 10 00 00 	lea    0x104a(%rip),%rdi        # 2ea8 <index.3429+0x1c8>
    1e5e:	e8 7d f0 ff ff       	callq  ee0 <puts@plt>
    1e63:	eb 9c                	jmp    1e01 <phase_defused+0x27>
    1e65:	48 8d 7c 24 10       	lea    0x10(%rsp),%rdi
    1e6a:	48 8d 35 58 11 00 00 	lea    0x1158(%rip),%rsi        # 2fc9 <index.3429+0x2e9>
    1e71:	e8 54 fa ff ff       	callq  18ca <strings_not_equal>
    1e76:	85 c0                	test   %eax,%eax
    1e78:	75 d1                	jne    1e4b <phase_defused+0x71>
    1e7a:	48 8d 3d 97 0f 00 00 	lea    0xf97(%rip),%rdi        # 2e18 <index.3429+0x138>
    1e81:	e8 5a f0 ff ff       	callq  ee0 <puts@plt>
    1e86:	48 8d 3d b3 0f 00 00 	lea    0xfb3(%rip),%rdi        # 2e40 <index.3429+0x160>
    1e8d:	e8 4e f0 ff ff       	callq  ee0 <puts@plt>
    1e92:	b8 00 00 00 00       	mov    $0x0,%eax
    1e97:	e8 37 f9 ff ff       	callq  17d3 <secret_phase>
    1e9c:	eb ad                	jmp    1e4b <phase_defused+0x71>
    1e9e:	e8 5d f0 ff ff       	callq  f00 <__stack_chk_fail@plt>

0000000000001ea3 <sigalrm_handler>:
    1ea3:	48 83 ec 08          	sub    $0x8,%rsp
    1ea7:	b9 00 00 00 00       	mov    $0x0,%ecx
    1eac:	48 8d 15 55 11 00 00 	lea    0x1155(%rip),%rdx        # 3008 <index.3429+0x328>
    1eb3:	be 01 00 00 00       	mov    $0x1,%esi
    1eb8:	48 8b 3d 01 28 20 00 	mov    0x202801(%rip),%rdi        # 2046c0 <stderr@@GLIBC_2.2.5>
    1ebf:	b8 00 00 00 00       	mov    $0x0,%eax
    1ec4:	e8 37 f1 ff ff       	callq  1000 <__fprintf_chk@plt>
    1ec9:	bf 01 00 00 00       	mov    $0x1,%edi
    1ece:	e8 0d f1 ff ff       	callq  fe0 <exit@plt>

0000000000001ed3 <rio_readlineb>:
    1ed3:	41 56                	push   %r14
    1ed5:	41 55                	push   %r13
    1ed7:	41 54                	push   %r12
    1ed9:	55                   	push   %rbp
    1eda:	53                   	push   %rbx
    1edb:	48 89 fb             	mov    %rdi,%rbx
    1ede:	49 89 f4             	mov    %rsi,%r12
    1ee1:	49 89 d6             	mov    %rdx,%r14
    1ee4:	41 bd 01 00 00 00    	mov    $0x1,%r13d
    1eea:	48 8d 6f 10          	lea    0x10(%rdi),%rbp
    1eee:	48 83 fa 01          	cmp    $0x1,%rdx
    1ef2:	77 0c                	ja     1f00 <rio_readlineb+0x2d>
    1ef4:	eb 60                	jmp    1f56 <rio_readlineb+0x83>
    1ef6:	e8 c5 ef ff ff       	callq  ec0 <__errno_location@plt>
    1efb:	83 38 04             	cmpl   $0x4,(%rax)
    1efe:	75 67                	jne    1f67 <rio_readlineb+0x94>
    1f00:	8b 43 04             	mov    0x4(%rbx),%eax
    1f03:	85 c0                	test   %eax,%eax
    1f05:	7f 20                	jg     1f27 <rio_readlineb+0x54>
    1f07:	ba 00 20 00 00       	mov    $0x2000,%edx
    1f0c:	48 89 ee             	mov    %rbp,%rsi
    1f0f:	8b 3b                	mov    (%rbx),%edi
    1f11:	e8 1a f0 ff ff       	callq  f30 <read@plt>
    1f16:	89 43 04             	mov    %eax,0x4(%rbx)
    1f19:	85 c0                	test   %eax,%eax
    1f1b:	78 d9                	js     1ef6 <rio_readlineb+0x23>
    1f1d:	85 c0                	test   %eax,%eax
    1f1f:	74 4f                	je     1f70 <rio_readlineb+0x9d>
    1f21:	48 89 6b 08          	mov    %rbp,0x8(%rbx)
    1f25:	eb d9                	jmp    1f00 <rio_readlineb+0x2d>
    1f27:	48 8b 53 08          	mov    0x8(%rbx),%rdx
    1f2b:	0f b6 0a             	movzbl (%rdx),%ecx
    1f2e:	48 83 c2 01          	add    $0x1,%rdx
    1f32:	48 89 53 08          	mov    %rdx,0x8(%rbx)
    1f36:	83 e8 01             	sub    $0x1,%eax
    1f39:	89 43 04             	mov    %eax,0x4(%rbx)
    1f3c:	49 83 c4 01          	add    $0x1,%r12
    1f40:	41 88 4c 24 ff       	mov    %cl,-0x1(%r12)
    1f45:	80 f9 0a             	cmp    $0xa,%cl
    1f48:	74 0c                	je     1f56 <rio_readlineb+0x83>
    1f4a:	41 83 c5 01          	add    $0x1,%r13d
    1f4e:	49 63 c5             	movslq %r13d,%rax
    1f51:	4c 39 f0             	cmp    %r14,%rax
    1f54:	72 aa                	jb     1f00 <rio_readlineb+0x2d>
    1f56:	41 c6 04 24 00       	movb   $0x0,(%r12)
    1f5b:	49 63 c5             	movslq %r13d,%rax
    1f5e:	5b                   	pop    %rbx
    1f5f:	5d                   	pop    %rbp
    1f60:	41 5c                	pop    %r12
    1f62:	41 5d                	pop    %r13
    1f64:	41 5e                	pop    %r14
    1f66:	c3                   	retq   
    1f67:	48 c7 c0 ff ff ff ff 	mov    $0xffffffffffffffff,%rax
    1f6e:	eb 05                	jmp    1f75 <rio_readlineb+0xa2>
    1f70:	b8 00 00 00 00       	mov    $0x0,%eax
    1f75:	85 c0                	test   %eax,%eax
    1f77:	75 0d                	jne    1f86 <rio_readlineb+0xb3>
    1f79:	b8 00 00 00 00       	mov    $0x0,%eax
    1f7e:	41 83 fd 01          	cmp    $0x1,%r13d
    1f82:	75 d2                	jne    1f56 <rio_readlineb+0x83>
    1f84:	eb d8                	jmp    1f5e <rio_readlineb+0x8b>
    1f86:	48 c7 c0 ff ff ff ff 	mov    $0xffffffffffffffff,%rax
    1f8d:	eb cf                	jmp    1f5e <rio_readlineb+0x8b>

0000000000001f8f <submitr>:
    1f8f:	41 57                	push   %r15
    1f91:	41 56                	push   %r14
    1f93:	41 55                	push   %r13
    1f95:	41 54                	push   %r12
    1f97:	55                   	push   %rbp
    1f98:	53                   	push   %rbx
    1f99:	48 81 ec 78 a0 00 00 	sub    $0xa078,%rsp
    1fa0:	49 89 fd             	mov    %rdi,%r13
    1fa3:	89 f5                	mov    %esi,%ebp
    1fa5:	48 89 54 24 08       	mov    %rdx,0x8(%rsp)
    1faa:	48 89 4c 24 10       	mov    %rcx,0x10(%rsp)
    1faf:	4c 89 44 24 20       	mov    %r8,0x20(%rsp)
    1fb4:	4c 89 4c 24 18       	mov    %r9,0x18(%rsp)
    1fb9:	48 8b 9c 24 b0 a0 00 	mov    0xa0b0(%rsp),%rbx
    1fc0:	00 
    1fc1:	4c 8b bc 24 b8 a0 00 	mov    0xa0b8(%rsp),%r15
    1fc8:	00 
    1fc9:	64 48 8b 04 25 28 00 	mov    %fs:0x28,%rax
    1fd0:	00 00 
    1fd2:	48 89 84 24 68 a0 00 	mov    %rax,0xa068(%rsp)
    1fd9:	00 
    1fda:	31 c0                	xor    %eax,%eax
    1fdc:	c7 44 24 3c 00 00 00 	movl   $0x0,0x3c(%rsp)
    1fe3:	00 
    1fe4:	ba 00 00 00 00       	mov    $0x0,%edx
    1fe9:	be 01 00 00 00       	mov    $0x1,%esi
    1fee:	bf 02 00 00 00       	mov    $0x2,%edi
    1ff3:	e8 48 f0 ff ff       	callq  1040 <socket@plt>
    1ff8:	85 c0                	test   %eax,%eax
    1ffa:	0f 88 35 01 00 00    	js     2135 <submitr+0x1a6>
    2000:	41 89 c4             	mov    %eax,%r12d
    2003:	4c 89 ef             	mov    %r13,%rdi
    2006:	e8 55 ef ff ff       	callq  f60 <gethostbyname@plt>
    200b:	48 85 c0             	test   %rax,%rax
    200e:	0f 84 71 01 00 00    	je     2185 <submitr+0x1f6>
    2014:	4c 8d 6c 24 40       	lea    0x40(%rsp),%r13
    2019:	48 c7 44 24 42 00 00 	movq   $0x0,0x42(%rsp)
    2020:	00 00 
    2022:	c7 44 24 4a 00 00 00 	movl   $0x0,0x4a(%rsp)
    2029:	00 
    202a:	66 c7 44 24 4e 00 00 	movw   $0x0,0x4e(%rsp)
    2031:	66 c7 44 24 40 02 00 	movw   $0x2,0x40(%rsp)
    2038:	48 63 50 14          	movslq 0x14(%rax),%rdx
    203c:	48 8b 40 18          	mov    0x18(%rax),%rax
    2040:	48 8d 7c 24 44       	lea    0x44(%rsp),%rdi
    2045:	b9 0c 00 00 00       	mov    $0xc,%ecx
    204a:	48 8b 30             	mov    (%rax),%rsi
    204d:	e8 1e ef ff ff       	callq  f70 <__memmove_chk@plt>
    2052:	66 c1 cd 08          	ror    $0x8,%bp
    2056:	66 89 6c 24 42       	mov    %bp,0x42(%rsp)
    205b:	ba 10 00 00 00       	mov    $0x10,%edx
    2060:	4c 89 ee             	mov    %r13,%rsi
    2063:	44 89 e7             	mov    %r12d,%edi
    2066:	e8 85 ef ff ff       	callq  ff0 <connect@plt>
    206b:	85 c0                	test   %eax,%eax
    206d:	0f 88 7d 01 00 00    	js     21f0 <submitr+0x261>
    2073:	49 c7 c1 ff ff ff ff 	mov    $0xffffffffffffffff,%r9
    207a:	b8 00 00 00 00       	mov    $0x0,%eax
    207f:	4c 89 c9             	mov    %r9,%rcx
    2082:	48 89 df             	mov    %rbx,%rdi
    2085:	f2 ae                	repnz scas %es:(%rdi),%al
    2087:	48 89 ce             	mov    %rcx,%rsi
    208a:	48 f7 d6             	not    %rsi
    208d:	4c 89 c9             	mov    %r9,%rcx
    2090:	48 8b 7c 24 08       	mov    0x8(%rsp),%rdi
    2095:	f2 ae                	repnz scas %es:(%rdi),%al
    2097:	49 89 c8             	mov    %rcx,%r8
    209a:	4c 89 c9             	mov    %r9,%rcx
    209d:	48 8b 7c 24 10       	mov    0x10(%rsp),%rdi
    20a2:	f2 ae                	repnz scas %es:(%rdi),%al
    20a4:	48 89 ca             	mov    %rcx,%rdx
    20a7:	48 f7 d2             	not    %rdx
    20aa:	4c 89 c9             	mov    %r9,%rcx
    20ad:	48 8b 7c 24 18       	mov    0x18(%rsp),%rdi
    20b2:	f2 ae                	repnz scas %es:(%rdi),%al
    20b4:	4c 29 c2             	sub    %r8,%rdx
    20b7:	48 29 ca             	sub    %rcx,%rdx
    20ba:	48 8d 44 76 fd       	lea    -0x3(%rsi,%rsi,2),%rax
    20bf:	48 8d 44 02 7b       	lea    0x7b(%rdx,%rax,1),%rax
    20c4:	48 3d 00 20 00 00    	cmp    $0x2000,%rax
    20ca:	0f 87 7d 01 00 00    	ja     224d <submitr+0x2be>
    20d0:	48 8d 94 24 60 40 00 	lea    0x4060(%rsp),%rdx
    20d7:	00 
    20d8:	b9 00 04 00 00       	mov    $0x400,%ecx
    20dd:	b8 00 00 00 00       	mov    $0x0,%eax
    20e2:	48 89 d7             	mov    %rdx,%rdi
    20e5:	f3 48 ab             	rep stos %rax,%es:(%rdi)
    20e8:	48 c7 c1 ff ff ff ff 	mov    $0xffffffffffffffff,%rcx
    20ef:	48 89 df             	mov    %rbx,%rdi
    20f2:	f2 ae                	repnz scas %es:(%rdi),%al
    20f4:	48 89 ca             	mov    %rcx,%rdx
    20f7:	48 f7 d2             	not    %rdx
    20fa:	48 89 d1             	mov    %rdx,%rcx
    20fd:	48 83 e9 01          	sub    $0x1,%rcx
    2101:	85 c9                	test   %ecx,%ecx
    2103:	0f 84 3f 06 00 00    	je     2748 <submitr+0x7b9>
    2109:	8d 41 ff             	lea    -0x1(%rcx),%eax
    210c:	4c 8d 74 03 01       	lea    0x1(%rbx,%rax,1),%r14
    2111:	48 8d ac 24 60 40 00 	lea    0x4060(%rsp),%rbp
    2118:	00 
    2119:	48 8d 84 24 60 80 00 	lea    0x8060(%rsp),%rax
    2120:	00 
    2121:	48 89 44 24 28       	mov    %rax,0x28(%rsp)
    2126:	49 bd d9 ff 00 00 00 	movabs $0x2000000000ffd9,%r13
    212d:	00 20 00 
    2130:	e9 a6 01 00 00       	jmpq   22db <submitr+0x34c>
    2135:	48 b8 45 72 72 6f 72 	movabs $0x43203a726f727245,%rax
    213c:	3a 20 43 
    213f:	48 ba 6c 69 65 6e 74 	movabs $0x6e7520746e65696c,%rdx
    2146:	20 75 6e 
    2149:	49 89 07             	mov    %rax,(%r15)
    214c:	49 89 57 08          	mov    %rdx,0x8(%r15)
    2150:	48 b8 61 62 6c 65 20 	movabs $0x206f7420656c6261,%rax
    2157:	74 6f 20 
    215a:	48 ba 63 72 65 61 74 	movabs $0x7320657461657263,%rdx
    2161:	65 20 73 
    2164:	49 89 47 10          	mov    %rax,0x10(%r15)
    2168:	49 89 57 18          	mov    %rdx,0x18(%r15)
    216c:	41 c7 47 20 6f 63 6b 	movl   $0x656b636f,0x20(%r15)
    2173:	65 
    2174:	66 41 c7 47 24 74 00 	movw   $0x74,0x24(%r15)
    217b:	b8 ff ff ff ff       	mov    $0xffffffff,%eax
    2180:	e9 9a 04 00 00       	jmpq   261f <submitr+0x690>
    2185:	48 b8 45 72 72 6f 72 	movabs $0x44203a726f727245,%rax
    218c:	3a 20 44 
    218f:	48 ba 4e 53 20 69 73 	movabs $0x6e7520736920534e,%rdx
    2196:	20 75 6e 
    2199:	49 89 07             	mov    %rax,(%r15)
    219c:	49 89 57 08          	mov    %rdx,0x8(%r15)
    21a0:	48 b8 61 62 6c 65 20 	movabs $0x206f7420656c6261,%rax
    21a7:	74 6f 20 
    21aa:	48 ba 72 65 73 6f 6c 	movabs $0x2065766c6f736572,%rdx
    21b1:	76 65 20 
    21b4:	49 89 47 10          	mov    %rax,0x10(%r15)
    21b8:	49 89 57 18          	mov    %rdx,0x18(%r15)
    21bc:	48 b8 73 65 72 76 65 	movabs $0x6120726576726573,%rax
    21c3:	72 20 61 
    21c6:	49 89 47 20          	mov    %rax,0x20(%r15)
    21ca:	41 c7 47 28 64 64 72 	movl   $0x65726464,0x28(%r15)
    21d1:	65 
    21d2:	66 41 c7 47 2c 73 73 	movw   $0x7373,0x2c(%r15)
    21d9:	41 c6 47 2e 00       	movb   $0x0,0x2e(%r15)
    21de:	44 89 e7             	mov    %r12d,%edi
    21e1:	e8 3a ed ff ff       	callq  f20 <close@plt>
    21e6:	b8 ff ff ff ff       	mov    $0xffffffff,%eax
    21eb:	e9 2f 04 00 00       	jmpq   261f <submitr+0x690>
    21f0:	48 b8 45 72 72 6f 72 	movabs $0x55203a726f727245,%rax
    21f7:	3a 20 55 
    21fa:	48 ba 6e 61 62 6c 65 	movabs $0x6f7420656c62616e,%rdx
    2201:	20 74 6f 
    2204:	49 89 07             	mov    %rax,(%r15)
    2207:	49 89 57 08          	mov    %rdx,0x8(%r15)
    220b:	48 b8 20 63 6f 6e 6e 	movabs $0x7463656e6e6f6320,%rax
    2212:	65 63 74 
    2215:	48 ba 20 74 6f 20 74 	movabs $0x20656874206f7420,%rdx
    221c:	68 65 20 
    221f:	49 89 47 10          	mov    %rax,0x10(%r15)
    2223:	49 89 57 18          	mov    %rdx,0x18(%r15)
    2227:	41 c7 47 20 73 65 72 	movl   $0x76726573,0x20(%r15)
    222e:	76 
    222f:	66 41 c7 47 24 65 72 	movw   $0x7265,0x24(%r15)
    2236:	41 c6 47 26 00       	movb   $0x0,0x26(%r15)
    223b:	44 89 e7             	mov    %r12d,%edi
    223e:	e8 dd ec ff ff       	callq  f20 <close@plt>
    2243:	b8 ff ff ff ff       	mov    $0xffffffff,%eax
    2248:	e9 d2 03 00 00       	jmpq   261f <submitr+0x690>
    224d:	48 b8 45 72 72 6f 72 	movabs $0x52203a726f727245,%rax
    2254:	3a 20 52 
    2257:	48 ba 65 73 75 6c 74 	movabs $0x747320746c757365,%rdx
    225e:	20 73 74 
    2261:	49 89 07             	mov    %rax,(%r15)
    2264:	49 89 57 08          	mov    %rdx,0x8(%r15)
    2268:	48 b8 72 69 6e 67 20 	movabs $0x6f6f7420676e6972,%rax
    226f:	74 6f 6f 
    2272:	48 ba 20 6c 61 72 67 	movabs $0x202e656772616c20,%rdx
    2279:	65 2e 20 
    227c:	49 89 47 10          	mov    %rax,0x10(%r15)
    2280:	49 89 57 18          	mov    %rdx,0x18(%r15)
    2284:	48 b8 49 6e 63 72 65 	movabs $0x6573616572636e49,%rax
    228b:	61 73 65 
    228e:	48 ba 20 53 55 42 4d 	movabs $0x5254494d42555320,%rdx
    2295:	49 54 52 
    2298:	49 89 47 20          	mov    %rax,0x20(%r15)
    229c:	49 89 57 28          	mov    %rdx,0x28(%r15)
    22a0:	48 b8 5f 4d 41 58 42 	movabs $0x46554258414d5f,%rax
    22a7:	55 46 00 
    22aa:	49 89 47 30          	mov    %rax,0x30(%r15)
    22ae:	44 89 e7             	mov    %r12d,%edi
    22b1:	e8 6a ec ff ff       	callq  f20 <close@plt>
    22b6:	b8 ff ff ff ff       	mov    $0xffffffff,%eax
    22bb:	e9 5f 03 00 00       	jmpq   261f <submitr+0x690>
    22c0:	49 0f a3 c5          	bt     %rax,%r13
    22c4:	73 21                	jae    22e7 <submitr+0x358>
    22c6:	44 88 45 00          	mov    %r8b,0x0(%rbp)
    22ca:	48 8d 6d 01          	lea    0x1(%rbp),%rbp
    22ce:	48 83 c3 01          	add    $0x1,%rbx
    22d2:	4c 39 f3             	cmp    %r14,%rbx
    22d5:	0f 84 6d 04 00 00    	je     2748 <submitr+0x7b9>
    22db:	44 0f b6 03          	movzbl (%rbx),%r8d
    22df:	41 8d 40 d6          	lea    -0x2a(%r8),%eax
    22e3:	3c 35                	cmp    $0x35,%al
    22e5:	76 d9                	jbe    22c0 <submitr+0x331>
    22e7:	44 89 c0             	mov    %r8d,%eax
    22ea:	83 e0 df             	and    $0xffffffdf,%eax
    22ed:	83 e8 41             	sub    $0x41,%eax
    22f0:	3c 19                	cmp    $0x19,%al
    22f2:	76 d2                	jbe    22c6 <submitr+0x337>
    22f4:	41 80 f8 20          	cmp    $0x20,%r8b
    22f8:	74 60                	je     235a <submitr+0x3cb>
    22fa:	41 8d 40 e0          	lea    -0x20(%r8),%eax
    22fe:	3c 5f                	cmp    $0x5f,%al
    2300:	76 0a                	jbe    230c <submitr+0x37d>
    2302:	41 80 f8 09          	cmp    $0x9,%r8b
    2306:	0f 85 af 03 00 00    	jne    26bb <submitr+0x72c>
    230c:	45 0f b6 c0          	movzbl %r8b,%r8d
    2310:	48 8d 0d c9 0d 00 00 	lea    0xdc9(%rip),%rcx        # 30e0 <index.3429+0x400>
    2317:	ba 08 00 00 00       	mov    $0x8,%edx
    231c:	be 01 00 00 00       	mov    $0x1,%esi
    2321:	48 8b 7c 24 28       	mov    0x28(%rsp),%rdi
    2326:	b8 00 00 00 00       	mov    $0x0,%eax
    232b:	e8 00 ed ff ff       	callq  1030 <__sprintf_chk@plt>
    2330:	0f b6 84 24 60 80 00 	movzbl 0x8060(%rsp),%eax
    2337:	00 
    2338:	88 45 00             	mov    %al,0x0(%rbp)
    233b:	0f b6 84 24 61 80 00 	movzbl 0x8061(%rsp),%eax
    2342:	00 
    2343:	88 45 01             	mov    %al,0x1(%rbp)
    2346:	0f b6 84 24 62 80 00 	movzbl 0x8062(%rsp),%eax
    234d:	00 
    234e:	88 45 02             	mov    %al,0x2(%rbp)
    2351:	48 8d 6d 03          	lea    0x3(%rbp),%rbp
    2355:	e9 74 ff ff ff       	jmpq   22ce <submitr+0x33f>
    235a:	c6 45 00 2b          	movb   $0x2b,0x0(%rbp)
    235e:	48 8d 6d 01          	lea    0x1(%rbp),%rbp
    2362:	e9 67 ff ff ff       	jmpq   22ce <submitr+0x33f>
    2367:	49 01 c5             	add    %rax,%r13
    236a:	48 29 c5             	sub    %rax,%rbp
    236d:	74 26                	je     2395 <submitr+0x406>
    236f:	48 89 ea             	mov    %rbp,%rdx
    2372:	4c 89 ee             	mov    %r13,%rsi
    2375:	44 89 e7             	mov    %r12d,%edi
    2378:	e8 73 eb ff ff       	callq  ef0 <write@plt>
    237d:	48 85 c0             	test   %rax,%rax
    2380:	7f e5                	jg     2367 <submitr+0x3d8>
    2382:	e8 39 eb ff ff       	callq  ec0 <__errno_location@plt>
    2387:	83 38 04             	cmpl   $0x4,(%rax)
    238a:	0f 85 31 01 00 00    	jne    24c1 <submitr+0x532>
    2390:	4c 89 f0             	mov    %r14,%rax
    2393:	eb d2                	jmp    2367 <submitr+0x3d8>
    2395:	48 85 db             	test   %rbx,%rbx
    2398:	0f 88 23 01 00 00    	js     24c1 <submitr+0x532>
    239e:	44 89 64 24 50       	mov    %r12d,0x50(%rsp)
    23a3:	c7 44 24 54 00 00 00 	movl   $0x0,0x54(%rsp)
    23aa:	00 
    23ab:	48 8d 7c 24 50       	lea    0x50(%rsp),%rdi
    23b0:	48 8d 47 10          	lea    0x10(%rdi),%rax
    23b4:	48 89 44 24 58       	mov    %rax,0x58(%rsp)
    23b9:	48 8d b4 24 60 20 00 	lea    0x2060(%rsp),%rsi
    23c0:	00 
    23c1:	ba 00 20 00 00       	mov    $0x2000,%edx
    23c6:	e8 08 fb ff ff       	callq  1ed3 <rio_readlineb>
    23cb:	48 85 c0             	test   %rax,%rax
    23ce:	0f 8e 4c 01 00 00    	jle    2520 <submitr+0x591>
    23d4:	48 8d 4c 24 3c       	lea    0x3c(%rsp),%rcx
    23d9:	48 8d 94 24 60 60 00 	lea    0x6060(%rsp),%rdx
    23e0:	00 
    23e1:	48 8d bc 24 60 20 00 	lea    0x2060(%rsp),%rdi
    23e8:	00 
    23e9:	4c 8d 84 24 60 80 00 	lea    0x8060(%rsp),%r8
    23f0:	00 
    23f1:	48 8d 35 ef 0c 00 00 	lea    0xcef(%rip),%rsi        # 30e7 <index.3429+0x407>
    23f8:	b8 00 00 00 00       	mov    $0x0,%eax
    23fd:	e8 9e eb ff ff       	callq  fa0 <__isoc99_sscanf@plt>
    2402:	44 8b 44 24 3c       	mov    0x3c(%rsp),%r8d
    2407:	41 81 f8 c8 00 00 00 	cmp    $0xc8,%r8d
    240e:	0f 85 80 01 00 00    	jne    2594 <submitr+0x605>
    2414:	48 8d 9c 24 60 20 00 	lea    0x2060(%rsp),%rbx
    241b:	00 
    241c:	48 8d 2d d5 0c 00 00 	lea    0xcd5(%rip),%rbp        # 30f8 <index.3429+0x418>
    2423:	4c 8d 6c 24 50       	lea    0x50(%rsp),%r13
    2428:	b9 03 00 00 00       	mov    $0x3,%ecx
    242d:	48 89 de             	mov    %rbx,%rsi
    2430:	48 89 ef             	mov    %rbp,%rdi
    2433:	f3 a6                	repz cmpsb %es:(%rdi),%ds:(%rsi)
    2435:	0f 97 c0             	seta   %al
    2438:	1c 00                	sbb    $0x0,%al
    243a:	84 c0                	test   %al,%al
    243c:	0f 84 89 01 00 00    	je     25cb <submitr+0x63c>
    2442:	ba 00 20 00 00       	mov    $0x2000,%edx
    2447:	48 89 de             	mov    %rbx,%rsi
    244a:	4c 89 ef             	mov    %r13,%rdi
    244d:	e8 81 fa ff ff       	callq  1ed3 <rio_readlineb>
    2452:	48 85 c0             	test   %rax,%rax
    2455:	7f d1                	jg     2428 <submitr+0x499>
    2457:	48 b8 45 72 72 6f 72 	movabs $0x43203a726f727245,%rax
    245e:	3a 20 43 
    2461:	48 ba 6c 69 65 6e 74 	movabs $0x6e7520746e65696c,%rdx
    2468:	20 75 6e 
    246b:	49 89 07             	mov    %rax,(%r15)
    246e:	49 89 57 08          	mov    %rdx,0x8(%r15)
    2472:	48 b8 61 62 6c 65 20 	movabs $0x206f7420656c6261,%rax
    2479:	74 6f 20 
    247c:	48 ba 72 65 61 64 20 	movabs $0x6165682064616572,%rdx
    2483:	68 65 61 
    2486:	49 89 47 10          	mov    %rax,0x10(%r15)
    248a:	49 89 57 18          	mov    %rdx,0x18(%r15)
    248e:	48 b8 64 65 72 73 20 	movabs $0x6f72662073726564,%rax
    2495:	66 72 6f 
    2498:	48 ba 6d 20 73 65 72 	movabs $0x726576726573206d,%rdx
    249f:	76 65 72 
    24a2:	49 89 47 20          	mov    %rax,0x20(%r15)
    24a6:	49 89 57 28          	mov    %rdx,0x28(%r15)
    24aa:	41 c6 47 30 00       	movb   $0x0,0x30(%r15)
    24af:	44 89 e7             	mov    %r12d,%edi
    24b2:	e8 69 ea ff ff       	callq  f20 <close@plt>
    24b7:	b8 ff ff ff ff       	mov    $0xffffffff,%eax
    24bc:	e9 5e 01 00 00       	jmpq   261f <submitr+0x690>
    24c1:	48 b8 45 72 72 6f 72 	movabs $0x43203a726f727245,%rax
    24c8:	3a 20 43 
    24cb:	48 ba 6c 69 65 6e 74 	movabs $0x6e7520746e65696c,%rdx
    24d2:	20 75 6e 
    24d5:	49 89 07             	mov    %rax,(%r15)
    24d8:	49 89 57 08          	mov    %rdx,0x8(%r15)
    24dc:	48 b8 61 62 6c 65 20 	movabs $0x206f7420656c6261,%rax
    24e3:	74 6f 20 
    24e6:	48 ba 77 72 69 74 65 	movabs $0x6f74206574697277,%rdx
    24ed:	20 74 6f 
    24f0:	49 89 47 10          	mov    %rax,0x10(%r15)
    24f4:	49 89 57 18          	mov    %rdx,0x18(%r15)
    24f8:	48 b8 20 74 68 65 20 	movabs $0x7265732065687420,%rax
    24ff:	73 65 72 
    2502:	49 89 47 20          	mov    %rax,0x20(%r15)
    2506:	41 c7 47 28 76 65 72 	movl   $0x726576,0x28(%r15)
    250d:	00 
    250e:	44 89 e7             	mov    %r12d,%edi
    2511:	e8 0a ea ff ff       	callq  f20 <close@plt>
    2516:	b8 ff ff ff ff       	mov    $0xffffffff,%eax
    251b:	e9 ff 00 00 00       	jmpq   261f <submitr+0x690>
    2520:	48 b8 45 72 72 6f 72 	movabs $0x43203a726f727245,%rax
    2527:	3a 20 43 
    252a:	48 ba 6c 69 65 6e 74 	movabs $0x6e7520746e65696c,%rdx
    2531:	20 75 6e 
    2534:	49 89 07             	mov    %rax,(%r15)
    2537:	49 89 57 08          	mov    %rdx,0x8(%r15)
    253b:	48 b8 61 62 6c 65 20 	movabs $0x206f7420656c6261,%rax
    2542:	74 6f 20 
    2545:	48 ba 72 65 61 64 20 	movabs $0x7269662064616572,%rdx
    254c:	66 69 72 
    254f:	49 89 47 10          	mov    %rax,0x10(%r15)
    2553:	49 89 57 18          	mov    %rdx,0x18(%r15)
    2557:	48 b8 73 74 20 68 65 	movabs $0x6564616568207473,%rax
    255e:	61 64 65 
    2561:	48 ba 72 20 66 72 6f 	movabs $0x73206d6f72662072,%rdx
    2568:	6d 20 73 
    256b:	49 89 47 20          	mov    %rax,0x20(%r15)
    256f:	49 89 57 28          	mov    %rdx,0x28(%r15)
    2573:	41 c7 47 30 65 72 76 	movl   $0x65767265,0x30(%r15)
    257a:	65 
    257b:	66 41 c7 47 34 72 00 	movw   $0x72,0x34(%r15)
    2582:	44 89 e7             	mov    %r12d,%edi
    2585:	e8 96 e9 ff ff       	callq  f20 <close@plt>
    258a:	b8 ff ff ff ff       	mov    $0xffffffff,%eax
    258f:	e9 8b 00 00 00       	jmpq   261f <submitr+0x690>
    2594:	4c 8d 8c 24 60 80 00 	lea    0x8060(%rsp),%r9
    259b:	00 
    259c:	48 8d 0d 8d 0a 00 00 	lea    0xa8d(%rip),%rcx        # 3030 <index.3429+0x350>
    25a3:	48 c7 c2 ff ff ff ff 	mov    $0xffffffffffffffff,%rdx
    25aa:	be 01 00 00 00       	mov    $0x1,%esi
    25af:	4c 89 ff             	mov    %r15,%rdi
    25b2:	b8 00 00 00 00       	mov    $0x0,%eax
    25b7:	e8 74 ea ff ff       	callq  1030 <__sprintf_chk@plt>
    25bc:	44 89 e7             	mov    %r12d,%edi
    25bf:	e8 5c e9 ff ff       	callq  f20 <close@plt>
    25c4:	b8 ff ff ff ff       	mov    $0xffffffff,%eax
    25c9:	eb 54                	jmp    261f <submitr+0x690>
    25cb:	48 8d b4 24 60 20 00 	lea    0x2060(%rsp),%rsi
    25d2:	00 
    25d3:	48 8d 7c 24 50       	lea    0x50(%rsp),%rdi
    25d8:	ba 00 20 00 00       	mov    $0x2000,%edx
    25dd:	e8 f1 f8 ff ff       	callq  1ed3 <rio_readlineb>
    25e2:	48 85 c0             	test   %rax,%rax
    25e5:	7e 61                	jle    2648 <submitr+0x6b9>
    25e7:	48 8d b4 24 60 20 00 	lea    0x2060(%rsp),%rsi
    25ee:	00 
    25ef:	4c 89 ff             	mov    %r15,%rdi
    25f2:	e8 d9 e8 ff ff       	callq  ed0 <strcpy@plt>
    25f7:	44 89 e7             	mov    %r12d,%edi
    25fa:	e8 21 e9 ff ff       	callq  f20 <close@plt>
    25ff:	b9 03 00 00 00       	mov    $0x3,%ecx
    2604:	48 8d 3d f0 0a 00 00 	lea    0xaf0(%rip),%rdi        # 30fb <index.3429+0x41b>
    260b:	4c 89 fe             	mov    %r15,%rsi
    260e:	f3 a6                	repz cmpsb %es:(%rdi),%ds:(%rsi)
    2610:	0f 97 c0             	seta   %al
    2613:	1c 00                	sbb    $0x0,%al
    2615:	84 c0                	test   %al,%al
    2617:	0f 95 c0             	setne  %al
    261a:	0f b6 c0             	movzbl %al,%eax
    261d:	f7 d8                	neg    %eax
    261f:	48 8b 94 24 68 a0 00 	mov    0xa068(%rsp),%rdx
    2626:	00 
    2627:	64 48 33 14 25 28 00 	xor    %fs:0x28,%rdx
    262e:	00 00 
    2630:	0f 85 95 01 00 00    	jne    27cb <submitr+0x83c>
    2636:	48 81 c4 78 a0 00 00 	add    $0xa078,%rsp
    263d:	5b                   	pop    %rbx
    263e:	5d                   	pop    %rbp
    263f:	41 5c                	pop    %r12
    2641:	41 5d                	pop    %r13
    2643:	41 5e                	pop    %r14
    2645:	41 5f                	pop    %r15
    2647:	c3                   	retq   
    2648:	48 b8 45 72 72 6f 72 	movabs $0x43203a726f727245,%rax
    264f:	3a 20 43 
    2652:	48 ba 6c 69 65 6e 74 	movabs $0x6e7520746e65696c,%rdx
    2659:	20 75 6e 
    265c:	49 89 07             	mov    %rax,(%r15)
    265f:	49 89 57 08          	mov    %rdx,0x8(%r15)
    2663:	48 b8 61 62 6c 65 20 	movabs $0x206f7420656c6261,%rax
    266a:	74 6f 20 
    266d:	48 ba 72 65 61 64 20 	movabs $0x6174732064616572,%rdx
    2674:	73 74 61 
    2677:	49 89 47 10          	mov    %rax,0x10(%r15)
    267b:	49 89 57 18          	mov    %rdx,0x18(%r15)
    267f:	48 b8 74 75 73 20 6d 	movabs $0x7373656d20737574,%rax
    2686:	65 73 73 
    2689:	48 ba 61 67 65 20 66 	movabs $0x6d6f726620656761,%rdx
    2690:	72 6f 6d 
    2693:	49 89 47 20          	mov    %rax,0x20(%r15)
    2697:	49 89 57 28          	mov    %rdx,0x28(%r15)
    269b:	48 b8 20 73 65 72 76 	movabs $0x72657672657320,%rax
    26a2:	65 72 00 
    26a5:	49 89 47 30          	mov    %rax,0x30(%r15)
    26a9:	44 89 e7             	mov    %r12d,%edi
    26ac:	e8 6f e8 ff ff       	callq  f20 <close@plt>
    26b1:	b8 ff ff ff ff       	mov    $0xffffffff,%eax
    26b6:	e9 64 ff ff ff       	jmpq   261f <submitr+0x690>
    26bb:	48 b8 45 72 72 6f 72 	movabs $0x52203a726f727245,%rax
    26c2:	3a 20 52 
    26c5:	48 ba 65 73 75 6c 74 	movabs $0x747320746c757365,%rdx
    26cc:	20 73 74 
    26cf:	49 89 07             	mov    %rax,(%r15)
    26d2:	49 89 57 08          	mov    %rdx,0x8(%r15)
    26d6:	48 b8 72 69 6e 67 20 	movabs $0x6e6f6320676e6972,%rax
    26dd:	63 6f 6e 
    26e0:	48 ba 74 61 69 6e 73 	movabs $0x6e6120736e696174,%rdx
    26e7:	20 61 6e 
    26ea:	49 89 47 10          	mov    %rax,0x10(%r15)
    26ee:	49 89 57 18          	mov    %rdx,0x18(%r15)
    26f2:	48 b8 20 69 6c 6c 65 	movabs $0x6c6167656c6c6920,%rax
    26f9:	67 61 6c 
    26fc:	48 ba 20 6f 72 20 75 	movabs $0x72706e7520726f20,%rdx
    2703:	6e 70 72 
    2706:	49 89 47 20          	mov    %rax,0x20(%r15)
    270a:	49 89 57 28          	mov    %rdx,0x28(%r15)
    270e:	48 b8 69 6e 74 61 62 	movabs $0x20656c6261746e69,%rax
    2715:	6c 65 20 
    2718:	48 ba 63 68 61 72 61 	movabs $0x6574636172616863,%rdx
    271f:	63 74 65 
    2722:	49 89 47 30          	mov    %rax,0x30(%r15)
    2726:	49 89 57 38          	mov    %rdx,0x38(%r15)
    272a:	66 41 c7 47 40 72 2e 	movw   $0x2e72,0x40(%r15)
    2731:	41 c6 47 42 00       	movb   $0x0,0x42(%r15)
    2736:	44 89 e7             	mov    %r12d,%edi
    2739:	e8 e2 e7 ff ff       	callq  f20 <close@plt>
    273e:	b8 ff ff ff ff       	mov    $0xffffffff,%eax
    2743:	e9 d7 fe ff ff       	jmpq   261f <submitr+0x690>
    2748:	48 8d 9c 24 60 20 00 	lea    0x2060(%rsp),%rbx
    274f:	00 
    2750:	48 83 ec 08          	sub    $0x8,%rsp
    2754:	48 8d 84 24 68 40 00 	lea    0x4068(%rsp),%rax
    275b:	00 
    275c:	50                   	push   %rax
    275d:	ff 74 24 28          	pushq  0x28(%rsp)
    2761:	ff 74 24 38          	pushq  0x38(%rsp)
    2765:	4c 8b 4c 24 30       	mov    0x30(%rsp),%r9
    276a:	4c 8b 44 24 28       	mov    0x28(%rsp),%r8
    276f:	48 8d 0d ea 08 00 00 	lea    0x8ea(%rip),%rcx        # 3060 <index.3429+0x380>
    2776:	ba 00 20 00 00       	mov    $0x2000,%edx
    277b:	be 01 00 00 00       	mov    $0x1,%esi
    2780:	48 89 df             	mov    %rbx,%rdi
    2783:	b8 00 00 00 00       	mov    $0x0,%eax
    2788:	e8 a3 e8 ff ff       	callq  1030 <__sprintf_chk@plt>
    278d:	48 c7 c1 ff ff ff ff 	mov    $0xffffffffffffffff,%rcx
    2794:	b8 00 00 00 00       	mov    $0x0,%eax
    2799:	48 89 df             	mov    %rbx,%rdi
    279c:	f2 ae                	repnz scas %es:(%rdi),%al
    279e:	48 f7 d1             	not    %rcx
    27a1:	48 89 cb             	mov    %rcx,%rbx
    27a4:	48 83 eb 01          	sub    $0x1,%rbx
    27a8:	48 83 c4 20          	add    $0x20,%rsp
    27ac:	48 89 dd             	mov    %rbx,%rbp
    27af:	4c 8d ac 24 60 20 00 	lea    0x2060(%rsp),%r13
    27b6:	00 
    27b7:	41 be 00 00 00 00    	mov    $0x0,%r14d
    27bd:	48 85 db             	test   %rbx,%rbx
    27c0:	0f 85 a9 fb ff ff    	jne    236f <submitr+0x3e0>
    27c6:	e9 d3 fb ff ff       	jmpq   239e <submitr+0x40f>
    27cb:	e8 30 e7 ff ff       	callq  f00 <__stack_chk_fail@plt>

00000000000027d0 <init_timeout>:
    27d0:	85 ff                	test   %edi,%edi
    27d2:	74 25                	je     27f9 <init_timeout+0x29>
    27d4:	53                   	push   %rbx
    27d5:	89 fb                	mov    %edi,%ebx
    27d7:	48 8d 35 c5 f6 ff ff 	lea    -0x93b(%rip),%rsi        # 1ea3 <sigalrm_handler>
    27de:	bf 0e 00 00 00       	mov    $0xe,%edi
    27e3:	e8 68 e7 ff ff       	callq  f50 <signal@plt>
    27e8:	85 db                	test   %ebx,%ebx
    27ea:	bf 00 00 00 00       	mov    $0x0,%edi
    27ef:	0f 49 fb             	cmovns %ebx,%edi
    27f2:	e8 19 e7 ff ff       	callq  f10 <alarm@plt>
    27f7:	5b                   	pop    %rbx
    27f8:	c3                   	retq   
    27f9:	f3 c3                	repz retq 

00000000000027fb <init_driver>:
    27fb:	41 54                	push   %r12
    27fd:	55                   	push   %rbp
    27fe:	53                   	push   %rbx
    27ff:	48 83 ec 20          	sub    $0x20,%rsp
    2803:	49 89 fc             	mov    %rdi,%r12
    2806:	64 48 8b 04 25 28 00 	mov    %fs:0x28,%rax
    280d:	00 00 
    280f:	48 89 44 24 18       	mov    %rax,0x18(%rsp)
    2814:	31 c0                	xor    %eax,%eax
    2816:	be 01 00 00 00       	mov    $0x1,%esi
    281b:	bf 0d 00 00 00       	mov    $0xd,%edi
    2820:	e8 2b e7 ff ff       	callq  f50 <signal@plt>
    2825:	be 01 00 00 00       	mov    $0x1,%esi
    282a:	bf 1d 00 00 00       	mov    $0x1d,%edi
    282f:	e8 1c e7 ff ff       	callq  f50 <signal@plt>
    2834:	be 01 00 00 00       	mov    $0x1,%esi
    2839:	bf 1d 00 00 00       	mov    $0x1d,%edi
    283e:	e8 0d e7 ff ff       	callq  f50 <signal@plt>
    2843:	ba 00 00 00 00       	mov    $0x0,%edx
    2848:	be 01 00 00 00       	mov    $0x1,%esi
    284d:	bf 02 00 00 00       	mov    $0x2,%edi
    2852:	e8 e9 e7 ff ff       	callq  1040 <socket@plt>
    2857:	85 c0                	test   %eax,%eax
    2859:	0f 88 a3 00 00 00    	js     2902 <init_driver+0x107>
    285f:	89 c3                	mov    %eax,%ebx
    2861:	48 8d 3d 96 08 00 00 	lea    0x896(%rip),%rdi        # 30fe <index.3429+0x41e>
    2868:	e8 f3 e6 ff ff       	callq  f60 <gethostbyname@plt>
    286d:	48 85 c0             	test   %rax,%rax
    2870:	0f 84 df 00 00 00    	je     2955 <init_driver+0x15a>
    2876:	48 89 e5             	mov    %rsp,%rbp
    2879:	48 c7 44 24 02 00 00 	movq   $0x0,0x2(%rsp)
    2880:	00 00 
    2882:	c7 45 0a 00 00 00 00 	movl   $0x0,0xa(%rbp)
    2889:	66 c7 45 0e 00 00    	movw   $0x0,0xe(%rbp)
    288f:	66 c7 04 24 02 00    	movw   $0x2,(%rsp)
    2895:	48 63 50 14          	movslq 0x14(%rax),%rdx
    2899:	48 8b 40 18          	mov    0x18(%rax),%rax
    289d:	48 8d 7d 04          	lea    0x4(%rbp),%rdi
    28a1:	b9 0c 00 00 00       	mov    $0xc,%ecx
    28a6:	48 8b 30             	mov    (%rax),%rsi
    28a9:	e8 c2 e6 ff ff       	callq  f70 <__memmove_chk@plt>
    28ae:	66 c7 44 24 02 9c 42 	movw   $0x429c,0x2(%rsp)
    28b5:	ba 10 00 00 00       	mov    $0x10,%edx
    28ba:	48 89 ee             	mov    %rbp,%rsi
    28bd:	89 df                	mov    %ebx,%edi
    28bf:	e8 2c e7 ff ff       	callq  ff0 <connect@plt>
    28c4:	85 c0                	test   %eax,%eax
    28c6:	0f 88 fb 00 00 00    	js     29c7 <init_driver+0x1cc>
    28cc:	89 df                	mov    %ebx,%edi
    28ce:	e8 4d e6 ff ff       	callq  f20 <close@plt>
    28d3:	66 41 c7 04 24 4f 4b 	movw   $0x4b4f,(%r12)
    28da:	41 c6 44 24 02 00    	movb   $0x0,0x2(%r12)
    28e0:	b8 00 00 00 00       	mov    $0x0,%eax
    28e5:	48 8b 4c 24 18       	mov    0x18(%rsp),%rcx
    28ea:	64 48 33 0c 25 28 00 	xor    %fs:0x28,%rcx
    28f1:	00 00 
    28f3:	0f 85 06 01 00 00    	jne    29ff <init_driver+0x204>
    28f9:	48 83 c4 20          	add    $0x20,%rsp
    28fd:	5b                   	pop    %rbx
    28fe:	5d                   	pop    %rbp
    28ff:	41 5c                	pop    %r12
    2901:	c3                   	retq   
    2902:	48 b8 45 72 72 6f 72 	movabs $0x43203a726f727245,%rax
    2909:	3a 20 43 
    290c:	48 ba 6c 69 65 6e 74 	movabs $0x6e7520746e65696c,%rdx
    2913:	20 75 6e 
    2916:	49 89 04 24          	mov    %rax,(%r12)
    291a:	49 89 54 24 08       	mov    %rdx,0x8(%r12)
    291f:	48 b8 61 62 6c 65 20 	movabs $0x206f7420656c6261,%rax
    2926:	74 6f 20 
    2929:	48 ba 63 72 65 61 74 	movabs $0x7320657461657263,%rdx
    2930:	65 20 73 
    2933:	49 89 44 24 10       	mov    %rax,0x10(%r12)
    2938:	49 89 54 24 18       	mov    %rdx,0x18(%r12)
    293d:	41 c7 44 24 20 6f 63 	movl   $0x656b636f,0x20(%r12)
    2944:	6b 65 
    2946:	66 41 c7 44 24 24 74 	movw   $0x74,0x24(%r12)
    294d:	00 
    294e:	b8 ff ff ff ff       	mov    $0xffffffff,%eax
    2953:	eb 90                	jmp    28e5 <init_driver+0xea>
    2955:	48 b8 45 72 72 6f 72 	movabs $0x44203a726f727245,%rax
    295c:	3a 20 44 
    295f:	48 ba 4e 53 20 69 73 	movabs $0x6e7520736920534e,%rdx
    2966:	20 75 6e 
    2969:	49 89 04 24          	mov    %rax,(%r12)
    296d:	49 89 54 24 08       	mov    %rdx,0x8(%r12)
    2972:	48 b8 61 62 6c 65 20 	movabs $0x206f7420656c6261,%rax
    2979:	74 6f 20 
    297c:	48 ba 72 65 73 6f 6c 	movabs $0x2065766c6f736572,%rdx
    2983:	76 65 20 
    2986:	49 89 44 24 10       	mov    %rax,0x10(%r12)
    298b:	49 89 54 24 18       	mov    %rdx,0x18(%r12)
    2990:	48 b8 73 65 72 76 65 	movabs $0x6120726576726573,%rax
    2997:	72 20 61 
    299a:	49 89 44 24 20       	mov    %rax,0x20(%r12)
    299f:	41 c7 44 24 28 64 64 	movl   $0x65726464,0x28(%r12)
    29a6:	72 65 
    29a8:	66 41 c7 44 24 2c 73 	movw   $0x7373,0x2c(%r12)
    29af:	73 
    29b0:	41 c6 44 24 2e 00    	movb   $0x0,0x2e(%r12)
    29b6:	89 df                	mov    %ebx,%edi
    29b8:	e8 63 e5 ff ff       	callq  f20 <close@plt>
    29bd:	b8 ff ff ff ff       	mov    $0xffffffff,%eax
    29c2:	e9 1e ff ff ff       	jmpq   28e5 <init_driver+0xea>
    29c7:	4c 8d 05 30 07 00 00 	lea    0x730(%rip),%r8        # 30fe <index.3429+0x41e>
    29ce:	48 8d 0d e3 06 00 00 	lea    0x6e3(%rip),%rcx        # 30b8 <index.3429+0x3d8>
    29d5:	48 c7 c2 ff ff ff ff 	mov    $0xffffffffffffffff,%rdx
    29dc:	be 01 00 00 00       	mov    $0x1,%esi
    29e1:	4c 89 e7             	mov    %r12,%rdi
    29e4:	b8 00 00 00 00       	mov    $0x0,%eax
    29e9:	e8 42 e6 ff ff       	callq  1030 <__sprintf_chk@plt>
    29ee:	89 df                	mov    %ebx,%edi
    29f0:	e8 2b e5 ff ff       	callq  f20 <close@plt>
    29f5:	b8 ff ff ff ff       	mov    $0xffffffff,%eax
    29fa:	e9 e6 fe ff ff       	jmpq   28e5 <init_driver+0xea>
    29ff:	e8 fc e4 ff ff       	callq  f00 <__stack_chk_fail@plt>

0000000000002a04 <driver_post>:
    2a04:	53                   	push   %rbx
    2a05:	4c 89 c3             	mov    %r8,%rbx
    2a08:	85 c9                	test   %ecx,%ecx
    2a0a:	75 17                	jne    2a23 <driver_post+0x1f>
    2a0c:	48 85 ff             	test   %rdi,%rdi
    2a0f:	74 05                	je     2a16 <driver_post+0x12>
    2a11:	80 3f 00             	cmpb   $0x0,(%rdi)
    2a14:	75 33                	jne    2a49 <driver_post+0x45>
    2a16:	66 c7 03 4f 4b       	movw   $0x4b4f,(%rbx)
    2a1b:	c6 43 02 00          	movb   $0x0,0x2(%rbx)
    2a1f:	89 c8                	mov    %ecx,%eax
    2a21:	5b                   	pop    %rbx
    2a22:	c3                   	retq   
    2a23:	48 8d 35 e3 06 00 00 	lea    0x6e3(%rip),%rsi        # 310d <index.3429+0x42d>
    2a2a:	bf 01 00 00 00       	mov    $0x1,%edi
    2a2f:	b8 00 00 00 00       	mov    $0x0,%eax
    2a34:	e8 77 e5 ff ff       	callq  fb0 <__printf_chk@plt>
    2a39:	66 c7 03 4f 4b       	movw   $0x4b4f,(%rbx)
    2a3e:	c6 43 02 00          	movb   $0x0,0x2(%rbx)
    2a42:	b8 00 00 00 00       	mov    $0x0,%eax
    2a47:	eb d8                	jmp    2a21 <driver_post+0x1d>
    2a49:	41 50                	push   %r8
    2a4b:	52                   	push   %rdx
    2a4c:	4c 8d 0d d1 06 00 00 	lea    0x6d1(%rip),%r9        # 3124 <index.3429+0x444>
    2a53:	49 89 f0             	mov    %rsi,%r8
    2a56:	48 89 f9             	mov    %rdi,%rcx
    2a59:	48 8d 15 d6 06 00 00 	lea    0x6d6(%rip),%rdx        # 3136 <index.3429+0x456>
    2a60:	be 42 9c 00 00       	mov    $0x9c42,%esi
    2a65:	48 8d 3d 92 06 00 00 	lea    0x692(%rip),%rdi        # 30fe <index.3429+0x41e>
    2a6c:	e8 1e f5 ff ff       	callq  1f8f <submitr>
    2a71:	48 83 c4 10          	add    $0x10,%rsp
    2a75:	eb aa                	jmp    2a21 <driver_post+0x1d>
    2a77:	66 0f 1f 84 00 00 00 	nopw   0x0(%rax,%rax,1)
    2a7e:	00 00 

0000000000002a80 <__libc_csu_init>:
    2a80:	41 57                	push   %r15
    2a82:	41 56                	push   %r14
    2a84:	49 89 d7             	mov    %rdx,%r15
    2a87:	41 55                	push   %r13
    2a89:	41 54                	push   %r12
    2a8b:	4c 8d 25 56 12 20 00 	lea    0x201256(%rip),%r12        # 203ce8 <__frame_dummy_init_array_entry>
    2a92:	55                   	push   %rbp
    2a93:	48 8d 2d 56 12 20 00 	lea    0x201256(%rip),%rbp        # 203cf0 <__do_global_dtors_aux_fini_array_entry>
    2a9a:	53                   	push   %rbx
    2a9b:	41 89 fd             	mov    %edi,%r13d
    2a9e:	49 89 f6             	mov    %rsi,%r14
    2aa1:	4c 29 e5             	sub    %r12,%rbp
    2aa4:	48 83 ec 08          	sub    $0x8,%rsp
    2aa8:	48 c1 fd 03          	sar    $0x3,%rbp
    2aac:	e8 c7 e3 ff ff       	callq  e78 <_init>
    2ab1:	48 85 ed             	test   %rbp,%rbp
    2ab4:	74 20                	je     2ad6 <__libc_csu_init+0x56>
    2ab6:	31 db                	xor    %ebx,%ebx
    2ab8:	0f 1f 84 00 00 00 00 	nopl   0x0(%rax,%rax,1)
    2abf:	00 
    2ac0:	4c 89 fa             	mov    %r15,%rdx
    2ac3:	4c 89 f6             	mov    %r14,%rsi
    2ac6:	44 89 ef             	mov    %r13d,%edi
    2ac9:	41 ff 14 dc          	callq  *(%r12,%rbx,8)
    2acd:	48 83 c3 01          	add    $0x1,%rbx
    2ad1:	48 39 dd             	cmp    %rbx,%rbp
    2ad4:	75 ea                	jne    2ac0 <__libc_csu_init+0x40>
    2ad6:	48 83 c4 08          	add    $0x8,%rsp
    2ada:	5b                   	pop    %rbx
    2adb:	5d                   	pop    %rbp
    2adc:	41 5c                	pop    %r12
    2ade:	41 5d                	pop    %r13
    2ae0:	41 5e                	pop    %r14
    2ae2:	41 5f                	pop    %r15
    2ae4:	c3                   	retq   
    2ae5:	90                   	nop
    2ae6:	66 2e 0f 1f 84 00 00 	nopw   %cs:0x0(%rax,%rax,1)
    2aed:	00 00 00 

0000000000002af0 <__libc_csu_fini>:
    2af0:	f3 c3                	repz retq 

Disassembly of section .fini:

0000000000002af4 <_fini>:
    2af4:	48 83 ec 08          	sub    $0x8,%rsp
    2af8:	48 83 c4 08          	add    $0x8,%rsp
    2afc:	c3                   	retq 