
rtarget:     file format elf64-x86-64


Disassembly of section .init:

0000000000400c48 <_init>:
  400c48:	48 83 ec 08          	sub    $0x8,%rsp
  400c4c:	48 8b 05 a5 43 20 00 	mov    0x2043a5(%rip),%rax        # 604ff8 <__gmon_start__>
  400c53:	48 85 c0             	test   %rax,%rax
  400c56:	74 02                	je     400c5a <_init+0x12>
  400c58:	ff d0                	callq  *%rax
  400c5a:	48 83 c4 08          	add    $0x8,%rsp
  400c5e:	c3                   	retq   

Disassembly of section .plt:

0000000000400c60 <.plt>:
  400c60:	ff 35 a2 43 20 00    	pushq  0x2043a2(%rip)        # 605008 <_GLOBAL_OFFSET_TABLE_+0x8>
  400c66:	ff 25 a4 43 20 00    	jmpq   *0x2043a4(%rip)        # 605010 <_GLOBAL_OFFSET_TABLE_+0x10>
  400c6c:	0f 1f 40 00          	nopl   0x0(%rax)

0000000000400c70 <strcasecmp@plt>:
  400c70:	ff 25 a2 43 20 00    	jmpq   *0x2043a2(%rip)        # 605018 <strcasecmp@GLIBC_2.2.5>
  400c76:	68 00 00 00 00       	pushq  $0x0
  400c7b:	e9 e0 ff ff ff       	jmpq   400c60 <.plt>

0000000000400c80 <__errno_location@plt>:
  400c80:	ff 25 9a 43 20 00    	jmpq   *0x20439a(%rip)        # 605020 <__errno_location@GLIBC_2.2.5>
  400c86:	68 01 00 00 00       	pushq  $0x1
  400c8b:	e9 d0 ff ff ff       	jmpq   400c60 <.plt>

0000000000400c90 <srandom@plt>:
  400c90:	ff 25 92 43 20 00    	jmpq   *0x204392(%rip)        # 605028 <srandom@GLIBC_2.2.5>
  400c96:	68 02 00 00 00       	pushq  $0x2
  400c9b:	e9 c0 ff ff ff       	jmpq   400c60 <.plt>

0000000000400ca0 <strncmp@plt>:
  400ca0:	ff 25 8a 43 20 00    	jmpq   *0x20438a(%rip)        # 605030 <strncmp@GLIBC_2.2.5>
  400ca6:	68 03 00 00 00       	pushq  $0x3
  400cab:	e9 b0 ff ff ff       	jmpq   400c60 <.plt>

0000000000400cb0 <strcpy@plt>:
  400cb0:	ff 25 82 43 20 00    	jmpq   *0x204382(%rip)        # 605038 <strcpy@GLIBC_2.2.5>
  400cb6:	68 04 00 00 00       	pushq  $0x4
  400cbb:	e9 a0 ff ff ff       	jmpq   400c60 <.plt>

0000000000400cc0 <puts@plt>:
  400cc0:	ff 25 7a 43 20 00    	jmpq   *0x20437a(%rip)        # 605040 <puts@GLIBC_2.2.5>
  400cc6:	68 05 00 00 00       	pushq  $0x5
  400ccb:	e9 90 ff ff ff       	jmpq   400c60 <.plt>

0000000000400cd0 <write@plt>:
  400cd0:	ff 25 72 43 20 00    	jmpq   *0x204372(%rip)        # 605048 <write@GLIBC_2.2.5>
  400cd6:	68 06 00 00 00       	pushq  $0x6
  400cdb:	e9 80 ff ff ff       	jmpq   400c60 <.plt>

0000000000400ce0 <__stack_chk_fail@plt>:
  400ce0:	ff 25 6a 43 20 00    	jmpq   *0x20436a(%rip)        # 605050 <__stack_chk_fail@GLIBC_2.4>
  400ce6:	68 07 00 00 00       	pushq  $0x7
  400ceb:	e9 70 ff ff ff       	jmpq   400c60 <.plt>

0000000000400cf0 <mmap@plt>:
  400cf0:	ff 25 62 43 20 00    	jmpq   *0x204362(%rip)        # 605058 <mmap@GLIBC_2.2.5>
  400cf6:	68 08 00 00 00       	pushq  $0x8
  400cfb:	e9 60 ff ff ff       	jmpq   400c60 <.plt>

0000000000400d00 <memset@plt>:
  400d00:	ff 25 5a 43 20 00    	jmpq   *0x20435a(%rip)        # 605060 <memset@GLIBC_2.2.5>
  400d06:	68 09 00 00 00       	pushq  $0x9
  400d0b:	e9 50 ff ff ff       	jmpq   400c60 <.plt>

0000000000400d10 <alarm@plt>:
  400d10:	ff 25 52 43 20 00    	jmpq   *0x204352(%rip)        # 605068 <alarm@GLIBC_2.2.5>
  400d16:	68 0a 00 00 00       	pushq  $0xa
  400d1b:	e9 40 ff ff ff       	jmpq   400c60 <.plt>

0000000000400d20 <close@plt>:
  400d20:	ff 25 4a 43 20 00    	jmpq   *0x20434a(%rip)        # 605070 <close@GLIBC_2.2.5>
  400d26:	68 0b 00 00 00       	pushq  $0xb
  400d2b:	e9 30 ff ff ff       	jmpq   400c60 <.plt>

0000000000400d30 <read@plt>:
  400d30:	ff 25 42 43 20 00    	jmpq   *0x204342(%rip)        # 605078 <read@GLIBC_2.2.5>
  400d36:	68 0c 00 00 00       	pushq  $0xc
  400d3b:	e9 20 ff ff ff       	jmpq   400c60 <.plt>

0000000000400d40 <signal@plt>:
  400d40:	ff 25 3a 43 20 00    	jmpq   *0x20433a(%rip)        # 605080 <signal@GLIBC_2.2.5>
  400d46:	68 0d 00 00 00       	pushq  $0xd
  400d4b:	e9 10 ff ff ff       	jmpq   400c60 <.plt>

0000000000400d50 <gethostbyname@plt>:
  400d50:	ff 25 32 43 20 00    	jmpq   *0x204332(%rip)        # 605088 <gethostbyname@GLIBC_2.2.5>
  400d56:	68 0e 00 00 00       	pushq  $0xe
  400d5b:	e9 00 ff ff ff       	jmpq   400c60 <.plt>

0000000000400d60 <__memmove_chk@plt>:
  400d60:	ff 25 2a 43 20 00    	jmpq   *0x20432a(%rip)        # 605090 <__memmove_chk@GLIBC_2.3.4>
  400d66:	68 0f 00 00 00       	pushq  $0xf
  400d6b:	e9 f0 fe ff ff       	jmpq   400c60 <.plt>

0000000000400d70 <strtol@plt>:
  400d70:	ff 25 22 43 20 00    	jmpq   *0x204322(%rip)        # 605098 <strtol@GLIBC_2.2.5>
  400d76:	68 10 00 00 00       	pushq  $0x10
  400d7b:	e9 e0 fe ff ff       	jmpq   400c60 <.plt>

0000000000400d80 <memcpy@plt>:
  400d80:	ff 25 1a 43 20 00    	jmpq   *0x20431a(%rip)        # 6050a0 <memcpy@GLIBC_2.14>
  400d86:	68 11 00 00 00       	pushq  $0x11
  400d8b:	e9 d0 fe ff ff       	jmpq   400c60 <.plt>

0000000000400d90 <time@plt>:
  400d90:	ff 25 12 43 20 00    	jmpq   *0x204312(%rip)        # 6050a8 <time@GLIBC_2.2.5>
  400d96:	68 12 00 00 00       	pushq  $0x12
  400d9b:	e9 c0 fe ff ff       	jmpq   400c60 <.plt>

0000000000400da0 <random@plt>:
  400da0:	ff 25 0a 43 20 00    	jmpq   *0x20430a(%rip)        # 6050b0 <random@GLIBC_2.2.5>
  400da6:	68 13 00 00 00       	pushq  $0x13
  400dab:	e9 b0 fe ff ff       	jmpq   400c60 <.plt>

0000000000400db0 <_IO_getc@plt>:
  400db0:	ff 25 02 43 20 00    	jmpq   *0x204302(%rip)        # 6050b8 <_IO_getc@GLIBC_2.2.5>
  400db6:	68 14 00 00 00       	pushq  $0x14
  400dbb:	e9 a0 fe ff ff       	jmpq   400c60 <.plt>

0000000000400dc0 <__isoc99_sscanf@plt>:
  400dc0:	ff 25 fa 42 20 00    	jmpq   *0x2042fa(%rip)        # 6050c0 <__isoc99_sscanf@GLIBC_2.7>
  400dc6:	68 15 00 00 00       	pushq  $0x15
  400dcb:	e9 90 fe ff ff       	jmpq   400c60 <.plt>

0000000000400dd0 <munmap@plt>:
  400dd0:	ff 25 f2 42 20 00    	jmpq   *0x2042f2(%rip)        # 6050c8 <munmap@GLIBC_2.2.5>
  400dd6:	68 16 00 00 00       	pushq  $0x16
  400ddb:	e9 80 fe ff ff       	jmpq   400c60 <.plt>

0000000000400de0 <__printf_chk@plt>:
  400de0:	ff 25 ea 42 20 00    	jmpq   *0x2042ea(%rip)        # 6050d0 <__printf_chk@GLIBC_2.3.4>
  400de6:	68 17 00 00 00       	pushq  $0x17
  400deb:	e9 70 fe ff ff       	jmpq   400c60 <.plt>

0000000000400df0 <fopen@plt>:
  400df0:	ff 25 e2 42 20 00    	jmpq   *0x2042e2(%rip)        # 6050d8 <fopen@GLIBC_2.2.5>
  400df6:	68 18 00 00 00       	pushq  $0x18
  400dfb:	e9 60 fe ff ff       	jmpq   400c60 <.plt>

0000000000400e00 <getopt@plt>:
  400e00:	ff 25 da 42 20 00    	jmpq   *0x2042da(%rip)        # 6050e0 <getopt@GLIBC_2.2.5>
  400e06:	68 19 00 00 00       	pushq  $0x19
  400e0b:	e9 50 fe ff ff       	jmpq   400c60 <.plt>

0000000000400e10 <strtoul@plt>:
  400e10:	ff 25 d2 42 20 00    	jmpq   *0x2042d2(%rip)        # 6050e8 <strtoul@GLIBC_2.2.5>
  400e16:	68 1a 00 00 00       	pushq  $0x1a
  400e1b:	e9 40 fe ff ff       	jmpq   400c60 <.plt>

0000000000400e20 <gethostname@plt>:
  400e20:	ff 25 ca 42 20 00    	jmpq   *0x2042ca(%rip)        # 6050f0 <gethostname@GLIBC_2.2.5>
  400e26:	68 1b 00 00 00       	pushq  $0x1b
  400e2b:	e9 30 fe ff ff       	jmpq   400c60 <.plt>

0000000000400e30 <exit@plt>:
  400e30:	ff 25 c2 42 20 00    	jmpq   *0x2042c2(%rip)        # 6050f8 <exit@GLIBC_2.2.5>
  400e36:	68 1c 00 00 00       	pushq  $0x1c
  400e3b:	e9 20 fe ff ff       	jmpq   400c60 <.plt>

0000000000400e40 <connect@plt>:
  400e40:	ff 25 ba 42 20 00    	jmpq   *0x2042ba(%rip)        # 605100 <connect@GLIBC_2.2.5>
  400e46:	68 1d 00 00 00       	pushq  $0x1d
  400e4b:	e9 10 fe ff ff       	jmpq   400c60 <.plt>

0000000000400e50 <__fprintf_chk@plt>:
  400e50:	ff 25 b2 42 20 00    	jmpq   *0x2042b2(%rip)        # 605108 <__fprintf_chk@GLIBC_2.3.4>
  400e56:	68 1e 00 00 00       	pushq  $0x1e
  400e5b:	e9 00 fe ff ff       	jmpq   400c60 <.plt>

0000000000400e60 <__sprintf_chk@plt>:
  400e60:	ff 25 aa 42 20 00    	jmpq   *0x2042aa(%rip)        # 605110 <__sprintf_chk@GLIBC_2.3.4>
  400e66:	68 1f 00 00 00       	pushq  $0x1f
  400e6b:	e9 f0 fd ff ff       	jmpq   400c60 <.plt>

0000000000400e70 <socket@plt>:
  400e70:	ff 25 a2 42 20 00    	jmpq   *0x2042a2(%rip)        # 605118 <socket@GLIBC_2.2.5>
  400e76:	68 20 00 00 00       	pushq  $0x20
  400e7b:	e9 e0 fd ff ff       	jmpq   400c60 <.plt>

Disassembly of section .text:

0000000000400e80 <_start>:
  400e80:	31 ed                	xor    %ebp,%ebp
  400e82:	49 89 d1             	mov    %rdx,%r9
  400e85:	5e                   	pop    %rsi
  400e86:	48 89 e2             	mov    %rsp,%rdx
  400e89:	48 83 e4 f0          	and    $0xfffffffffffffff0,%rsp
  400e8d:	50                   	push   %rax
  400e8e:	54                   	push   %rsp
  400e8f:	49 c7 c0 20 30 40 00 	mov    $0x403020,%r8
  400e96:	48 c7 c1 b0 2f 40 00 	mov    $0x402fb0,%rcx
  400e9d:	48 c7 c7 8e 11 40 00 	mov    $0x40118e,%rdi
  400ea4:	ff 15 46 41 20 00    	callq  *0x204146(%rip)        # 604ff0 <__libc_start_main@GLIBC_2.2.5>
  400eaa:	f4                   	hlt    
  400eab:	0f 1f 44 00 00       	nopl   0x0(%rax,%rax,1)

0000000000400eb0 <_dl_relocate_static_pie>:
  400eb0:	f3 c3                	repz retq 
  400eb2:	66 2e 0f 1f 84 00 00 	nopw   %cs:0x0(%rax,%rax,1)
  400eb9:	00 00 00 
  400ebc:	0f 1f 40 00          	nopl   0x0(%rax)

0000000000400ec0 <deregister_tm_clones>:
  400ec0:	55                   	push   %rbp
  400ec1:	b8 90 54 60 00       	mov    $0x605490,%eax
  400ec6:	48 3d 90 54 60 00    	cmp    $0x605490,%rax
  400ecc:	48 89 e5             	mov    %rsp,%rbp
  400ecf:	74 17                	je     400ee8 <deregister_tm_clones+0x28>
  400ed1:	b8 00 00 00 00       	mov    $0x0,%eax
  400ed6:	48 85 c0             	test   %rax,%rax
  400ed9:	74 0d                	je     400ee8 <deregister_tm_clones+0x28>
  400edb:	5d                   	pop    %rbp
  400edc:	bf 90 54 60 00       	mov    $0x605490,%edi
  400ee1:	ff e0                	jmpq   *%rax
  400ee3:	0f 1f 44 00 00       	nopl   0x0(%rax,%rax,1)
  400ee8:	5d                   	pop    %rbp
  400ee9:	c3                   	retq   
  400eea:	66 0f 1f 44 00 00    	nopw   0x0(%rax,%rax,1)

0000000000400ef0 <register_tm_clones>:
  400ef0:	be 90 54 60 00       	mov    $0x605490,%esi
  400ef5:	55                   	push   %rbp
  400ef6:	48 81 ee 90 54 60 00 	sub    $0x605490,%rsi
  400efd:	48 89 e5             	mov    %rsp,%rbp
  400f00:	48 c1 fe 03          	sar    $0x3,%rsi
  400f04:	48 89 f0             	mov    %rsi,%rax
  400f07:	48 c1 e8 3f          	shr    $0x3f,%rax
  400f0b:	48 01 c6             	add    %rax,%rsi
  400f0e:	48 d1 fe             	sar    %rsi
  400f11:	74 15                	je     400f28 <register_tm_clones+0x38>
  400f13:	b8 00 00 00 00       	mov    $0x0,%eax
  400f18:	48 85 c0             	test   %rax,%rax
  400f1b:	74 0b                	je     400f28 <register_tm_clones+0x38>
  400f1d:	5d                   	pop    %rbp
  400f1e:	bf 90 54 60 00       	mov    $0x605490,%edi
  400f23:	ff e0                	jmpq   *%rax
  400f25:	0f 1f 00             	nopl   (%rax)
  400f28:	5d                   	pop    %rbp
  400f29:	c3                   	retq   
  400f2a:	66 0f 1f 44 00 00    	nopw   0x0(%rax,%rax,1)

0000000000400f30 <__do_global_dtors_aux>:
  400f30:	80 3d 91 45 20 00 00 	cmpb   $0x0,0x204591(%rip)        # 6054c8 <completed.7698>
  400f37:	75 17                	jne    400f50 <__do_global_dtors_aux+0x20>
  400f39:	55                   	push   %rbp
  400f3a:	48 89 e5             	mov    %rsp,%rbp
  400f3d:	e8 7e ff ff ff       	callq  400ec0 <deregister_tm_clones>
  400f42:	c6 05 7f 45 20 00 01 	movb   $0x1,0x20457f(%rip)        # 6054c8 <completed.7698>
  400f49:	5d                   	pop    %rbp
  400f4a:	c3                   	retq   
  400f4b:	0f 1f 44 00 00       	nopl   0x0(%rax,%rax,1)
  400f50:	f3 c3                	repz retq 
  400f52:	0f 1f 40 00          	nopl   0x0(%rax)
  400f56:	66 2e 0f 1f 84 00 00 	nopw   %cs:0x0(%rax,%rax,1)
  400f5d:	00 00 00 

0000000000400f60 <frame_dummy>:
  400f60:	55                   	push   %rbp
  400f61:	48 89 e5             	mov    %rsp,%rbp
  400f64:	5d                   	pop    %rbp
  400f65:	eb 89                	jmp    400ef0 <register_tm_clones>

0000000000400f67 <usage>:
  400f67:	48 83 ec 08          	sub    $0x8,%rsp
  400f6b:	48 89 fa             	mov    %rdi,%rdx
  400f6e:	83 3d 93 45 20 00 00 	cmpl   $0x0,0x204593(%rip)        # 605508 <is_checker>
  400f75:	74 50                	je     400fc7 <usage+0x60>
  400f77:	48 8d 35 ba 20 00 00 	lea    0x20ba(%rip),%rsi        # 403038 <_IO_stdin_used+0x8>
  400f7e:	bf 01 00 00 00       	mov    $0x1,%edi
  400f83:	b8 00 00 00 00       	mov    $0x0,%eax
  400f88:	e8 53 fe ff ff       	callq  400de0 <__printf_chk@plt>
  400f8d:	48 8d 3d dc 20 00 00 	lea    0x20dc(%rip),%rdi        # 403070 <_IO_stdin_used+0x40>
  400f94:	e8 27 fd ff ff       	callq  400cc0 <puts@plt>
  400f99:	48 8d 3d 48 22 00 00 	lea    0x2248(%rip),%rdi        # 4031e8 <_IO_stdin_used+0x1b8>
  400fa0:	e8 1b fd ff ff       	callq  400cc0 <puts@plt>
  400fa5:	48 8d 3d ec 20 00 00 	lea    0x20ec(%rip),%rdi        # 403098 <_IO_stdin_used+0x68>
  400fac:	e8 0f fd ff ff       	callq  400cc0 <puts@plt>
  400fb1:	48 8d 3d 4a 22 00 00 	lea    0x224a(%rip),%rdi        # 403202 <_IO_stdin_used+0x1d2>
  400fb8:	e8 03 fd ff ff       	callq  400cc0 <puts@plt>
  400fbd:	bf 00 00 00 00       	mov    $0x0,%edi
  400fc2:	e8 69 fe ff ff       	callq  400e30 <exit@plt>
  400fc7:	48 8d 35 50 22 00 00 	lea    0x2250(%rip),%rsi        # 40321e <_IO_stdin_used+0x1ee>
  400fce:	bf 01 00 00 00       	mov    $0x1,%edi
  400fd3:	b8 00 00 00 00       	mov    $0x0,%eax
  400fd8:	e8 03 fe ff ff       	callq  400de0 <__printf_chk@plt>
  400fdd:	48 8d 3d dc 20 00 00 	lea    0x20dc(%rip),%rdi        # 4030c0 <_IO_stdin_used+0x90>
  400fe4:	e8 d7 fc ff ff       	callq  400cc0 <puts@plt>
  400fe9:	48 8d 3d f8 20 00 00 	lea    0x20f8(%rip),%rdi        # 4030e8 <_IO_stdin_used+0xb8>
  400ff0:	e8 cb fc ff ff       	callq  400cc0 <puts@plt>
  400ff5:	48 8d 3d 40 22 00 00 	lea    0x2240(%rip),%rdi        # 40323c <_IO_stdin_used+0x20c>
  400ffc:	e8 bf fc ff ff       	callq  400cc0 <puts@plt>
  401001:	eb ba                	jmp    400fbd <usage+0x56>

0000000000401003 <initialize_target>:
  401003:	55                   	push   %rbp
  401004:	53                   	push   %rbx
  401005:	48 81 ec 18 21 00 00 	sub    $0x2118,%rsp
  40100c:	89 f5                	mov    %esi,%ebp
  40100e:	64 48 8b 04 25 28 00 	mov    %fs:0x28,%rax
  401015:	00 00 
  401017:	48 89 84 24 08 21 00 	mov    %rax,0x2108(%rsp)
  40101e:	00 
  40101f:	31 c0                	xor    %eax,%eax
  401021:	89 3d d1 44 20 00    	mov    %edi,0x2044d1(%rip)        # 6054f8 <check_level>
  401027:	8b 3d 03 41 20 00    	mov    0x204103(%rip),%edi        # 605130 <target_id>
  40102d:	e8 56 1f 00 00       	callq  402f88 <gencookie>
  401032:	89 05 cc 44 20 00    	mov    %eax,0x2044cc(%rip)        # 605504 <cookie>
  401038:	89 c7                	mov    %eax,%edi
  40103a:	e8 49 1f 00 00       	callq  402f88 <gencookie>
  40103f:	89 05 bb 44 20 00    	mov    %eax,0x2044bb(%rip)        # 605500 <authkey>
  401045:	8b 05 e5 40 20 00    	mov    0x2040e5(%rip),%eax        # 605130 <target_id>
  40104b:	8d 78 01             	lea    0x1(%rax),%edi
  40104e:	e8 3d fc ff ff       	callq  400c90 <srandom@plt>
  401053:	e8 48 fd ff ff       	callq  400da0 <random@plt>
  401058:	89 c7                	mov    %eax,%edi
  40105a:	e8 1a 03 00 00       	callq  401379 <scramble>
  40105f:	89 c3                	mov    %eax,%ebx
  401061:	85 ed                	test   %ebp,%ebp
  401063:	75 54                	jne    4010b9 <initialize_target+0xb6>
  401065:	b8 00 00 00 00       	mov    $0x0,%eax
  40106a:	01 d8                	add    %ebx,%eax
  40106c:	0f b7 c0             	movzwl %ax,%eax
  40106f:	8d 04 c5 00 01 00 00 	lea    0x100(,%rax,8),%eax
  401076:	89 c0                	mov    %eax,%eax
  401078:	48 89 05 01 44 20 00 	mov    %rax,0x204401(%rip)        # 605480 <buf_offset>
  40107f:	c6 05 a2 50 20 00 72 	movb   $0x72,0x2050a2(%rip)        # 606128 <target_prefix>
  401086:	83 3d fb 43 20 00 00 	cmpl   $0x0,0x2043fb(%rip)        # 605488 <notify>
  40108d:	74 09                	je     401098 <initialize_target+0x95>
  40108f:	83 3d 72 44 20 00 00 	cmpl   $0x0,0x204472(%rip)        # 605508 <is_checker>
  401096:	74 39                	je     4010d1 <initialize_target+0xce>
  401098:	48 8b 84 24 08 21 00 	mov    0x2108(%rsp),%rax
  40109f:	00 
  4010a0:	64 48 33 04 25 28 00 	xor    %fs:0x28,%rax
  4010a7:	00 00 
  4010a9:	0f 85 da 00 00 00    	jne    401189 <initialize_target+0x186>
  4010af:	48 81 c4 18 21 00 00 	add    $0x2118,%rsp
  4010b6:	5b                   	pop    %rbx
  4010b7:	5d                   	pop    %rbp
  4010b8:	c3                   	retq   
  4010b9:	bf 00 00 00 00       	mov    $0x0,%edi
  4010be:	e8 cd fc ff ff       	callq  400d90 <time@plt>
  4010c3:	89 c7                	mov    %eax,%edi
  4010c5:	e8 c6 fb ff ff       	callq  400c90 <srandom@plt>
  4010ca:	e8 d1 fc ff ff       	callq  400da0 <random@plt>
  4010cf:	eb 99                	jmp    40106a <initialize_target+0x67>
  4010d1:	48 89 e7             	mov    %rsp,%rdi
  4010d4:	be 00 01 00 00       	mov    $0x100,%esi
  4010d9:	e8 42 fd ff ff       	callq  400e20 <gethostname@plt>
  4010de:	89 c5                	mov    %eax,%ebp
  4010e0:	85 c0                	test   %eax,%eax
  4010e2:	75 26                	jne    40110a <initialize_target+0x107>
  4010e4:	89 c3                	mov    %eax,%ebx
  4010e6:	48 63 c3             	movslq %ebx,%rax
  4010e9:	48 8d 15 70 40 20 00 	lea    0x204070(%rip),%rdx        # 605160 <host_table>
  4010f0:	48 8b 3c c2          	mov    (%rdx,%rax,8),%rdi
  4010f4:	48 85 ff             	test   %rdi,%rdi
  4010f7:	74 2c                	je     401125 <initialize_target+0x122>
  4010f9:	48 89 e6             	mov    %rsp,%rsi
  4010fc:	e8 6f fb ff ff       	callq  400c70 <strcasecmp@plt>
  401101:	85 c0                	test   %eax,%eax
  401103:	74 1b                	je     401120 <initialize_target+0x11d>
  401105:	83 c3 01             	add    $0x1,%ebx
  401108:	eb dc                	jmp    4010e6 <initialize_target+0xe3>
  40110a:	48 8d 3d 07 20 00 00 	lea    0x2007(%rip),%rdi        # 403118 <_IO_stdin_used+0xe8>
  401111:	e8 aa fb ff ff       	callq  400cc0 <puts@plt>
  401116:	bf 08 00 00 00       	mov    $0x8,%edi
  40111b:	e8 10 fd ff ff       	callq  400e30 <exit@plt>
  401120:	bd 01 00 00 00       	mov    $0x1,%ebp
  401125:	85 ed                	test   %ebp,%ebp
  401127:	74 3d                	je     401166 <initialize_target+0x163>
  401129:	48 8d bc 24 00 01 00 	lea    0x100(%rsp),%rdi
  401130:	00 
  401131:	e8 82 1b 00 00       	callq  402cb8 <init_driver>
  401136:	85 c0                	test   %eax,%eax
  401138:	0f 89 5a ff ff ff    	jns    401098 <initialize_target+0x95>
  40113e:	48 8d 94 24 00 01 00 	lea    0x100(%rsp),%rdx
  401145:	00 
  401146:	48 8d 35 43 20 00 00 	lea    0x2043(%rip),%rsi        # 403190 <_IO_stdin_used+0x160>
  40114d:	bf 01 00 00 00       	mov    $0x1,%edi
  401152:	b8 00 00 00 00       	mov    $0x0,%eax
  401157:	e8 84 fc ff ff       	callq  400de0 <__printf_chk@plt>
  40115c:	bf 08 00 00 00       	mov    $0x8,%edi
  401161:	e8 ca fc ff ff       	callq  400e30 <exit@plt>
  401166:	48 89 e2             	mov    %rsp,%rdx
  401169:	48 8d 35 e0 1f 00 00 	lea    0x1fe0(%rip),%rsi        # 403150 <_IO_stdin_used+0x120>
  401170:	bf 01 00 00 00       	mov    $0x1,%edi
  401175:	b8 00 00 00 00       	mov    $0x0,%eax
  40117a:	e8 61 fc ff ff       	callq  400de0 <__printf_chk@plt>
  40117f:	bf 08 00 00 00       	mov    $0x8,%edi
  401184:	e8 a7 fc ff ff       	callq  400e30 <exit@plt>
  401189:	e8 52 fb ff ff       	callq  400ce0 <__stack_chk_fail@plt>

000000000040118e <main>:
  40118e:	41 56                	push   %r14
  401190:	41 55                	push   %r13
  401192:	41 54                	push   %r12
  401194:	55                   	push   %rbp
  401195:	53                   	push   %rbx
  401196:	41 89 fc             	mov    %edi,%r12d
  401199:	48 89 f3             	mov    %rsi,%rbx
  40119c:	48 c7 c6 bf 1f 40 00 	mov    $0x401fbf,%rsi
  4011a3:	bf 0b 00 00 00       	mov    $0xb,%edi
  4011a8:	e8 93 fb ff ff       	callq  400d40 <signal@plt>
  4011ad:	48 c7 c6 6b 1f 40 00 	mov    $0x401f6b,%rsi
  4011b4:	bf 07 00 00 00       	mov    $0x7,%edi
  4011b9:	e8 82 fb ff ff       	callq  400d40 <signal@plt>
  4011be:	48 c7 c6 13 20 40 00 	mov    $0x402013,%rsi
  4011c5:	bf 04 00 00 00       	mov    $0x4,%edi
  4011ca:	e8 71 fb ff ff       	callq  400d40 <signal@plt>
  4011cf:	83 3d 32 43 20 00 00 	cmpl   $0x0,0x204332(%rip)        # 605508 <is_checker>
  4011d6:	75 26                	jne    4011fe <main+0x70>
  4011d8:	48 8d 2d 76 20 00 00 	lea    0x2076(%rip),%rbp        # 403255 <_IO_stdin_used+0x225>
  4011df:	48 8b 05 ba 42 20 00 	mov    0x2042ba(%rip),%rax        # 6054a0 <stdin@@GLIBC_2.2.5>
  4011e6:	48 89 05 03 43 20 00 	mov    %rax,0x204303(%rip)        # 6054f0 <infile>
  4011ed:	41 bd 00 00 00 00    	mov    $0x0,%r13d
  4011f3:	41 be 00 00 00 00    	mov    $0x0,%r14d
  4011f9:	e9 8d 00 00 00       	jmpq   40128b <main+0xfd>
  4011fe:	48 c7 c6 67 20 40 00 	mov    $0x402067,%rsi
  401205:	bf 0e 00 00 00       	mov    $0xe,%edi
  40120a:	e8 31 fb ff ff       	callq  400d40 <signal@plt>
  40120f:	bf 05 00 00 00       	mov    $0x5,%edi
  401214:	e8 f7 fa ff ff       	callq  400d10 <alarm@plt>
  401219:	48 8d 2d 3a 20 00 00 	lea    0x203a(%rip),%rbp        # 40325a <_IO_stdin_used+0x22a>
  401220:	eb bd                	jmp    4011df <main+0x51>
  401222:	48 8b 3b             	mov    (%rbx),%rdi
  401225:	e8 3d fd ff ff       	callq  400f67 <usage>
  40122a:	48 8d 35 b3 22 00 00 	lea    0x22b3(%rip),%rsi        # 4034e4 <_IO_stdin_used+0x4b4>
  401231:	48 8b 3d 70 42 20 00 	mov    0x204270(%rip),%rdi        # 6054a8 <optarg@@GLIBC_2.2.5>
  401238:	e8 b3 fb ff ff       	callq  400df0 <fopen@plt>
  40123d:	48 89 05 ac 42 20 00 	mov    %rax,0x2042ac(%rip)        # 6054f0 <infile>
  401244:	48 85 c0             	test   %rax,%rax
  401247:	75 42                	jne    40128b <main+0xfd>
  401249:	48 8b 0d 58 42 20 00 	mov    0x204258(%rip),%rcx        # 6054a8 <optarg@@GLIBC_2.2.5>
  401250:	48 8d 15 0b 20 00 00 	lea    0x200b(%rip),%rdx        # 403262 <_IO_stdin_used+0x232>
  401257:	be 01 00 00 00       	mov    $0x1,%esi
  40125c:	48 8b 3d 5d 42 20 00 	mov    0x20425d(%rip),%rdi        # 6054c0 <stderr@@GLIBC_2.2.5>
  401263:	e8 e8 fb ff ff       	callq  400e50 <__fprintf_chk@plt>
  401268:	b8 01 00 00 00       	mov    $0x1,%eax
  40126d:	e9 d9 00 00 00       	jmpq   40134b <main+0x1bd>
  401272:	ba 10 00 00 00       	mov    $0x10,%edx
  401277:	be 00 00 00 00       	mov    $0x0,%esi
  40127c:	48 8b 3d 25 42 20 00 	mov    0x204225(%rip),%rdi        # 6054a8 <optarg@@GLIBC_2.2.5>
  401283:	e8 88 fb ff ff       	callq  400e10 <strtoul@plt>
  401288:	41 89 c6             	mov    %eax,%r14d
  40128b:	48 89 ea             	mov    %rbp,%rdx
  40128e:	48 89 de             	mov    %rbx,%rsi
  401291:	44 89 e7             	mov    %r12d,%edi
  401294:	e8 67 fb ff ff       	callq  400e00 <getopt@plt>
  401299:	3c ff                	cmp    $0xff,%al
  40129b:	74 62                	je     4012ff <main+0x171>
  40129d:	0f be d0             	movsbl %al,%edx
  4012a0:	83 e8 61             	sub    $0x61,%eax
  4012a3:	3c 10                	cmp    $0x10,%al
  4012a5:	77 3a                	ja     4012e1 <main+0x153>
  4012a7:	0f b6 c0             	movzbl %al,%eax
  4012aa:	48 8d 0d ef 1f 00 00 	lea    0x1fef(%rip),%rcx        # 4032a0 <_IO_stdin_used+0x270>
  4012b1:	48 63 04 81          	movslq (%rcx,%rax,4),%rax
  4012b5:	48 01 c8             	add    %rcx,%rax
  4012b8:	ff e0                	jmpq   *%rax
  4012ba:	ba 0a 00 00 00       	mov    $0xa,%edx
  4012bf:	be 00 00 00 00       	mov    $0x0,%esi
  4012c4:	48 8b 3d dd 41 20 00 	mov    0x2041dd(%rip),%rdi        # 6054a8 <optarg@@GLIBC_2.2.5>
  4012cb:	e8 a0 fa ff ff       	callq  400d70 <strtol@plt>
  4012d0:	41 89 c5             	mov    %eax,%r13d
  4012d3:	eb b6                	jmp    40128b <main+0xfd>
  4012d5:	c7 05 a9 41 20 00 00 	movl   $0x0,0x2041a9(%rip)        # 605488 <notify>
  4012dc:	00 00 00 
  4012df:	eb aa                	jmp    40128b <main+0xfd>
  4012e1:	48 8d 35 97 1f 00 00 	lea    0x1f97(%rip),%rsi        # 40327f <_IO_stdin_used+0x24f>
  4012e8:	bf 01 00 00 00       	mov    $0x1,%edi
  4012ed:	b8 00 00 00 00       	mov    $0x0,%eax
  4012f2:	e8 e9 fa ff ff       	callq  400de0 <__printf_chk@plt>
  4012f7:	48 8b 3b             	mov    (%rbx),%rdi
  4012fa:	e8 68 fc ff ff       	callq  400f67 <usage>
  4012ff:	be 01 00 00 00       	mov    $0x1,%esi
  401304:	44 89 ef             	mov    %r13d,%edi
  401307:	e8 f7 fc ff ff       	callq  401003 <initialize_target>
  40130c:	83 3d f5 41 20 00 00 	cmpl   $0x0,0x2041f5(%rip)        # 605508 <is_checker>
  401313:	74 09                	je     40131e <main+0x190>
  401315:	44 39 35 e4 41 20 00 	cmp    %r14d,0x2041e4(%rip)        # 605500 <authkey>
  40131c:	75 36                	jne    401354 <main+0x1c6>
  40131e:	8b 15 e0 41 20 00    	mov    0x2041e0(%rip),%edx        # 605504 <cookie>
  401324:	48 8d 35 67 1f 00 00 	lea    0x1f67(%rip),%rsi        # 403292 <_IO_stdin_used+0x262>
  40132b:	bf 01 00 00 00       	mov    $0x1,%edi
  401330:	b8 00 00 00 00       	mov    $0x0,%eax
  401335:	e8 a6 fa ff ff       	callq  400de0 <__printf_chk@plt>
  40133a:	48 8b 3d 3f 41 20 00 	mov    0x20413f(%rip),%rdi        # 605480 <buf_offset>
  401341:	e8 78 0d 00 00       	callq  4020be <launch>
  401346:	b8 00 00 00 00       	mov    $0x0,%eax
  40134b:	5b                   	pop    %rbx
  40134c:	5d                   	pop    %rbp
  40134d:	41 5c                	pop    %r12
  40134f:	41 5d                	pop    %r13
  401351:	41 5e                	pop    %r14
  401353:	c3                   	retq   
  401354:	44 89 f2             	mov    %r14d,%edx
  401357:	48 8d 35 5a 1e 00 00 	lea    0x1e5a(%rip),%rsi        # 4031b8 <_IO_stdin_used+0x188>
  40135e:	bf 01 00 00 00       	mov    $0x1,%edi
  401363:	b8 00 00 00 00       	mov    $0x0,%eax
  401368:	e8 73 fa ff ff       	callq  400de0 <__printf_chk@plt>
  40136d:	b8 00 00 00 00       	mov    $0x0,%eax
  401372:	e8 54 08 00 00       	callq  401bcb <check_fail>
  401377:	eb a5                	jmp    40131e <main+0x190>

0000000000401379 <scramble>:
  401379:	48 83 ec 38          	sub    $0x38,%rsp
  40137d:	64 48 8b 04 25 28 00 	mov    %fs:0x28,%rax
  401384:	00 00 
  401386:	48 89 44 24 28       	mov    %rax,0x28(%rsp)
  40138b:	31 c0                	xor    %eax,%eax
  40138d:	eb 10                	jmp    40139f <scramble+0x26>
  40138f:	69 d0 d6 4b 00 00    	imul   $0x4bd6,%eax,%edx
  401395:	01 fa                	add    %edi,%edx
  401397:	89 c1                	mov    %eax,%ecx
  401399:	89 14 8c             	mov    %edx,(%rsp,%rcx,4)
  40139c:	83 c0 01             	add    $0x1,%eax
  40139f:	83 f8 09             	cmp    $0x9,%eax
  4013a2:	76 eb                	jbe    40138f <scramble+0x16>
  4013a4:	8b 44 24 0c          	mov    0xc(%rsp),%eax
  4013a8:	69 c0 ba 4b 00 00    	imul   $0x4bba,%eax,%eax
  4013ae:	89 44 24 0c          	mov    %eax,0xc(%rsp)
  4013b2:	8b 44 24 08          	mov    0x8(%rsp),%eax
  4013b6:	69 c0 82 18 00 00    	imul   $0x1882,%eax,%eax
  4013bc:	89 44 24 08          	mov    %eax,0x8(%rsp)
  4013c0:	8b 44 24 24          	mov    0x24(%rsp),%eax
  4013c4:	69 c0 c8 6e 00 00    	imul   $0x6ec8,%eax,%eax
  4013ca:	89 44 24 24          	mov    %eax,0x24(%rsp)
  4013ce:	8b 44 24 1c          	mov    0x1c(%rsp),%eax
  4013d2:	69 c0 12 ed 00 00    	imul   $0xed12,%eax,%eax
  4013d8:	89 44 24 1c          	mov    %eax,0x1c(%rsp)
  4013dc:	8b 44 24 14          	mov    0x14(%rsp),%eax
  4013e0:	69 c0 09 22 00 00    	imul   $0x2209,%eax,%eax
  4013e6:	89 44 24 14          	mov    %eax,0x14(%rsp)
  4013ea:	8b 44 24 20          	mov    0x20(%rsp),%eax
  4013ee:	69 c0 85 bf 00 00    	imul   $0xbf85,%eax,%eax
  4013f4:	89 44 24 20          	mov    %eax,0x20(%rsp)
  4013f8:	8b 44 24 10          	mov    0x10(%rsp),%eax
  4013fc:	69 c0 a1 b1 00 00    	imul   $0xb1a1,%eax,%eax
  401402:	89 44 24 10          	mov    %eax,0x10(%rsp)
  401406:	8b 44 24 14          	mov    0x14(%rsp),%eax
  40140a:	69 c0 e2 b0 00 00    	imul   $0xb0e2,%eax,%eax
  401410:	89 44 24 14          	mov    %eax,0x14(%rsp)
  401414:	8b 44 24 08          	mov    0x8(%rsp),%eax
  401418:	69 c0 4e 33 00 00    	imul   $0x334e,%eax,%eax
  40141e:	89 44 24 08          	mov    %eax,0x8(%rsp)
  401422:	8b 44 24 04          	mov    0x4(%rsp),%eax
  401426:	69 c0 f8 5b 00 00    	imul   $0x5bf8,%eax,%eax
  40142c:	89 44 24 04          	mov    %eax,0x4(%rsp)
  401430:	8b 44 24 08          	mov    0x8(%rsp),%eax
  401434:	69 c0 d9 5f 00 00    	imul   $0x5fd9,%eax,%eax
  40143a:	89 44 24 08          	mov    %eax,0x8(%rsp)
  40143e:	8b 04 24             	mov    (%rsp),%eax
  401441:	69 c0 49 5a 00 00    	imul   $0x5a49,%eax,%eax
  401447:	89 04 24             	mov    %eax,(%rsp)
  40144a:	8b 44 24 10          	mov    0x10(%rsp),%eax
  40144e:	69 c0 21 47 00 00    	imul   $0x4721,%eax,%eax
  401454:	89 44 24 10          	mov    %eax,0x10(%rsp)
  401458:	8b 44 24 0c          	mov    0xc(%rsp),%eax
  40145c:	69 c0 0a 90 00 00    	imul   $0x900a,%eax,%eax
  401462:	89 44 24 0c          	mov    %eax,0xc(%rsp)
  401466:	8b 44 24 14          	mov    0x14(%rsp),%eax
  40146a:	69 c0 30 b6 00 00    	imul   $0xb630,%eax,%eax
  401470:	89 44 24 14          	mov    %eax,0x14(%rsp)
  401474:	8b 44 24 18          	mov    0x18(%rsp),%eax
  401478:	69 c0 77 79 00 00    	imul   $0x7977,%eax,%eax
  40147e:	89 44 24 18          	mov    %eax,0x18(%rsp)
  401482:	8b 44 24 04          	mov    0x4(%rsp),%eax
  401486:	69 c0 f3 8a 00 00    	imul   $0x8af3,%eax,%eax
  40148c:	89 44 24 04          	mov    %eax,0x4(%rsp)
  401490:	8b 44 24 24          	mov    0x24(%rsp),%eax
  401494:	69 c0 26 0d 00 00    	imul   $0xd26,%eax,%eax
  40149a:	89 44 24 24          	mov    %eax,0x24(%rsp)
  40149e:	8b 44 24 20          	mov    0x20(%rsp),%eax
  4014a2:	69 c0 41 55 00 00    	imul   $0x5541,%eax,%eax
  4014a8:	89 44 24 20          	mov    %eax,0x20(%rsp)
  4014ac:	8b 44 24 20          	mov    0x20(%rsp),%eax
  4014b0:	69 c0 7e 14 00 00    	imul   $0x147e,%eax,%eax
  4014b6:	89 44 24 20          	mov    %eax,0x20(%rsp)
  4014ba:	8b 44 24 0c          	mov    0xc(%rsp),%eax
  4014be:	69 c0 7f 59 00 00    	imul   $0x597f,%eax,%eax
  4014c4:	89 44 24 0c          	mov    %eax,0xc(%rsp)
  4014c8:	8b 44 24 24          	mov    0x24(%rsp),%eax
  4014cc:	69 c0 5c 56 00 00    	imul   $0x565c,%eax,%eax
  4014d2:	89 44 24 24          	mov    %eax,0x24(%rsp)
  4014d6:	8b 44 24 10          	mov    0x10(%rsp),%eax
  4014da:	69 c0 ca f5 00 00    	imul   $0xf5ca,%eax,%eax
  4014e0:	89 44 24 10          	mov    %eax,0x10(%rsp)
  4014e4:	8b 44 24 20          	mov    0x20(%rsp),%eax
  4014e8:	69 c0 a8 8f 00 00    	imul   $0x8fa8,%eax,%eax
  4014ee:	89 44 24 20          	mov    %eax,0x20(%rsp)
  4014f2:	8b 44 24 04          	mov    0x4(%rsp),%eax
  4014f6:	69 c0 fc 4c 00 00    	imul   $0x4cfc,%eax,%eax
  4014fc:	89 44 24 04          	mov    %eax,0x4(%rsp)
  401500:	8b 44 24 08          	mov    0x8(%rsp),%eax
  401504:	69 c0 79 86 00 00    	imul   $0x8679,%eax,%eax
  40150a:	89 44 24 08          	mov    %eax,0x8(%rsp)
  40150e:	8b 44 24 10          	mov    0x10(%rsp),%eax
  401512:	69 c0 bf c5 00 00    	imul   $0xc5bf,%eax,%eax
  401518:	89 44 24 10          	mov    %eax,0x10(%rsp)
  40151c:	8b 44 24 08          	mov    0x8(%rsp),%eax
  401520:	69 c0 02 40 00 00    	imul   $0x4002,%eax,%eax
  401526:	89 44 24 08          	mov    %eax,0x8(%rsp)
  40152a:	8b 44 24 20          	mov    0x20(%rsp),%eax
  40152e:	69 c0 19 a2 00 00    	imul   $0xa219,%eax,%eax
  401534:	89 44 24 20          	mov    %eax,0x20(%rsp)
  401538:	8b 44 24 24          	mov    0x24(%rsp),%eax
  40153c:	69 c0 81 3a 00 00    	imul   $0x3a81,%eax,%eax
  401542:	89 44 24 24          	mov    %eax,0x24(%rsp)
  401546:	8b 44 24 08          	mov    0x8(%rsp),%eax
  40154a:	69 c0 58 5f 00 00    	imul   $0x5f58,%eax,%eax
  401550:	89 44 24 08          	mov    %eax,0x8(%rsp)
  401554:	8b 44 24 14          	mov    0x14(%rsp),%eax
  401558:	69 c0 33 5a 00 00    	imul   $0x5a33,%eax,%eax
  40155e:	89 44 24 14          	mov    %eax,0x14(%rsp)
  401562:	8b 44 24 18          	mov    0x18(%rsp),%eax
  401566:	69 c0 f2 45 00 00    	imul   $0x45f2,%eax,%eax
  40156c:	89 44 24 18          	mov    %eax,0x18(%rsp)
  401570:	8b 44 24 1c          	mov    0x1c(%rsp),%eax
  401574:	69 c0 06 e4 00 00    	imul   $0xe406,%eax,%eax
  40157a:	89 44 24 1c          	mov    %eax,0x1c(%rsp)
  40157e:	8b 44 24 08          	mov    0x8(%rsp),%eax
  401582:	69 c0 92 61 00 00    	imul   $0x6192,%eax,%eax
  401588:	89 44 24 08          	mov    %eax,0x8(%rsp)
  40158c:	8b 44 24 10          	mov    0x10(%rsp),%eax
  401590:	69 c0 7d 12 00 00    	imul   $0x127d,%eax,%eax
  401596:	89 44 24 10          	mov    %eax,0x10(%rsp)
  40159a:	8b 44 24 14          	mov    0x14(%rsp),%eax
  40159e:	69 c0 88 cc 00 00    	imul   $0xcc88,%eax,%eax
  4015a4:	89 44 24 14          	mov    %eax,0x14(%rsp)
  4015a8:	8b 44 24 18          	mov    0x18(%rsp),%eax
  4015ac:	69 c0 33 c6 00 00    	imul   $0xc633,%eax,%eax
  4015b2:	89 44 24 18          	mov    %eax,0x18(%rsp)
  4015b6:	8b 44 24 24          	mov    0x24(%rsp),%eax
  4015ba:	69 c0 17 70 00 00    	imul   $0x7017,%eax,%eax
  4015c0:	89 44 24 24          	mov    %eax,0x24(%rsp)
  4015c4:	8b 44 24 20          	mov    0x20(%rsp),%eax
  4015c8:	69 c0 6a eb 00 00    	imul   $0xeb6a,%eax,%eax
  4015ce:	89 44 24 20          	mov    %eax,0x20(%rsp)
  4015d2:	8b 44 24 1c          	mov    0x1c(%rsp),%eax
  4015d6:	69 c0 7c 41 00 00    	imul   $0x417c,%eax,%eax
  4015dc:	89 44 24 1c          	mov    %eax,0x1c(%rsp)
  4015e0:	8b 44 24 24          	mov    0x24(%rsp),%eax
  4015e4:	69 c0 ea 69 00 00    	imul   $0x69ea,%eax,%eax
  4015ea:	89 44 24 24          	mov    %eax,0x24(%rsp)
  4015ee:	8b 44 24 10          	mov    0x10(%rsp),%eax
  4015f2:	69 c0 a5 52 00 00    	imul   $0x52a5,%eax,%eax
  4015f8:	89 44 24 10          	mov    %eax,0x10(%rsp)
  4015fc:	8b 44 24 10          	mov    0x10(%rsp),%eax
  401600:	69 c0 1b 14 00 00    	imul   $0x141b,%eax,%eax
  401606:	89 44 24 10          	mov    %eax,0x10(%rsp)
  40160a:	8b 44 24 20          	mov    0x20(%rsp),%eax
  40160e:	69 c0 f8 79 00 00    	imul   $0x79f8,%eax,%eax
  401614:	89 44 24 20          	mov    %eax,0x20(%rsp)
  401618:	8b 44 24 20          	mov    0x20(%rsp),%eax
  40161c:	69 c0 07 4d 00 00    	imul   $0x4d07,%eax,%eax
  401622:	89 44 24 20          	mov    %eax,0x20(%rsp)
  401626:	8b 44 24 0c          	mov    0xc(%rsp),%eax
  40162a:	69 c0 95 02 00 00    	imul   $0x295,%eax,%eax
  401630:	89 44 24 0c          	mov    %eax,0xc(%rsp)
  401634:	8b 44 24 24          	mov    0x24(%rsp),%eax
  401638:	69 c0 9b c3 00 00    	imul   $0xc39b,%eax,%eax
  40163e:	89 44 24 24          	mov    %eax,0x24(%rsp)
  401642:	8b 44 24 24          	mov    0x24(%rsp),%eax
  401646:	69 c0 95 0e 00 00    	imul   $0xe95,%eax,%eax
  40164c:	89 44 24 24          	mov    %eax,0x24(%rsp)
  401650:	8b 44 24 1c          	mov    0x1c(%rsp),%eax
  401654:	69 c0 ba e3 00 00    	imul   $0xe3ba,%eax,%eax
  40165a:	89 44 24 1c          	mov    %eax,0x1c(%rsp)
  40165e:	8b 44 24 14          	mov    0x14(%rsp),%eax
  401662:	69 c0 26 a0 00 00    	imul   $0xa026,%eax,%eax
  401668:	89 44 24 14          	mov    %eax,0x14(%rsp)
  40166c:	8b 44 24 08          	mov    0x8(%rsp),%eax
  401670:	69 c0 39 2b 00 00    	imul   $0x2b39,%eax,%eax
  401676:	89 44 24 08          	mov    %eax,0x8(%rsp)
  40167a:	8b 44 24 18          	mov    0x18(%rsp),%eax
  40167e:	69 c0 10 5f 00 00    	imul   $0x5f10,%eax,%eax
  401684:	89 44 24 18          	mov    %eax,0x18(%rsp)
  401688:	8b 44 24 0c          	mov    0xc(%rsp),%eax
  40168c:	69 c0 00 2f 00 00    	imul   $0x2f00,%eax,%eax
  401692:	89 44 24 0c          	mov    %eax,0xc(%rsp)
  401696:	8b 44 24 18          	mov    0x18(%rsp),%eax
  40169a:	69 c0 48 47 00 00    	imul   $0x4748,%eax,%eax
  4016a0:	89 44 24 18          	mov    %eax,0x18(%rsp)
  4016a4:	8b 04 24             	mov    (%rsp),%eax
  4016a7:	69 c0 3b 8c 00 00    	imul   $0x8c3b,%eax,%eax
  4016ad:	89 04 24             	mov    %eax,(%rsp)
  4016b0:	8b 44 24 0c          	mov    0xc(%rsp),%eax
  4016b4:	69 c0 4d 8c 00 00    	imul   $0x8c4d,%eax,%eax
  4016ba:	89 44 24 0c          	mov    %eax,0xc(%rsp)
  4016be:	8b 44 24 18          	mov    0x18(%rsp),%eax
  4016c2:	8d 14 c0             	lea    (%rax,%rax,8),%edx
  4016c5:	89 d0                	mov    %edx,%eax
  4016c7:	c1 e0 0c             	shl    $0xc,%eax
  4016ca:	89 44 24 18          	mov    %eax,0x18(%rsp)
  4016ce:	8b 44 24 14          	mov    0x14(%rsp),%eax
  4016d2:	69 c0 11 a0 00 00    	imul   $0xa011,%eax,%eax
  4016d8:	89 44 24 14          	mov    %eax,0x14(%rsp)
  4016dc:	8b 44 24 08          	mov    0x8(%rsp),%eax
  4016e0:	69 c0 b1 d3 00 00    	imul   $0xd3b1,%eax,%eax
  4016e6:	89 44 24 08          	mov    %eax,0x8(%rsp)
  4016ea:	8b 44 24 20          	mov    0x20(%rsp),%eax
  4016ee:	69 c0 b8 f2 00 00    	imul   $0xf2b8,%eax,%eax
  4016f4:	89 44 24 20          	mov    %eax,0x20(%rsp)
  4016f8:	8b 44 24 24          	mov    0x24(%rsp),%eax
  4016fc:	69 c0 5a f3 00 00    	imul   $0xf35a,%eax,%eax
  401702:	89 44 24 24          	mov    %eax,0x24(%rsp)
  401706:	8b 44 24 18          	mov    0x18(%rsp),%eax
  40170a:	69 c0 f3 c7 00 00    	imul   $0xc7f3,%eax,%eax
  401710:	89 44 24 18          	mov    %eax,0x18(%rsp)
  401714:	8b 44 24 08          	mov    0x8(%rsp),%eax
  401718:	69 c0 d4 3d 00 00    	imul   $0x3dd4,%eax,%eax
  40171e:	89 44 24 08          	mov    %eax,0x8(%rsp)
  401722:	8b 44 24 20          	mov    0x20(%rsp),%eax
  401726:	69 c0 97 5e 00 00    	imul   $0x5e97,%eax,%eax
  40172c:	89 44 24 20          	mov    %eax,0x20(%rsp)
  401730:	8b 44 24 0c          	mov    0xc(%rsp),%eax
  401734:	69 c0 b0 46 00 00    	imul   $0x46b0,%eax,%eax
  40173a:	89 44 24 0c          	mov    %eax,0xc(%rsp)
  40173e:	8b 44 24 14          	mov    0x14(%rsp),%eax
  401742:	69 c0 c5 17 00 00    	imul   $0x17c5,%eax,%eax
  401748:	89 44 24 14          	mov    %eax,0x14(%rsp)
  40174c:	8b 44 24 14          	mov    0x14(%rsp),%eax
  401750:	69 c0 6b 6b 00 00    	imul   $0x6b6b,%eax,%eax
  401756:	89 44 24 14          	mov    %eax,0x14(%rsp)
  40175a:	8b 44 24 1c          	mov    0x1c(%rsp),%eax
  40175e:	69 c0 56 63 00 00    	imul   $0x6356,%eax,%eax
  401764:	89 44 24 1c          	mov    %eax,0x1c(%rsp)
  401768:	8b 44 24 08          	mov    0x8(%rsp),%eax
  40176c:	69 c0 fc 45 00 00    	imul   $0x45fc,%eax,%eax
  401772:	89 44 24 08          	mov    %eax,0x8(%rsp)
  401776:	8b 44 24 08          	mov    0x8(%rsp),%eax
  40177a:	69 c0 d5 b4 00 00    	imul   $0xb4d5,%eax,%eax
  401780:	89 44 24 08          	mov    %eax,0x8(%rsp)
  401784:	8b 04 24             	mov    (%rsp),%eax
  401787:	69 c0 62 33 00 00    	imul   $0x3362,%eax,%eax
  40178d:	89 04 24             	mov    %eax,(%rsp)
  401790:	8b 44 24 18          	mov    0x18(%rsp),%eax
  401794:	69 c0 5d c8 00 00    	imul   $0xc85d,%eax,%eax
  40179a:	89 44 24 18          	mov    %eax,0x18(%rsp)
  40179e:	8b 44 24 1c          	mov    0x1c(%rsp),%eax
  4017a2:	69 c0 15 20 00 00    	imul   $0x2015,%eax,%eax
  4017a8:	89 44 24 1c          	mov    %eax,0x1c(%rsp)
  4017ac:	8b 44 24 08          	mov    0x8(%rsp),%eax
  4017b0:	69 c0 7e 67 00 00    	imul   $0x677e,%eax,%eax
  4017b6:	89 44 24 08          	mov    %eax,0x8(%rsp)
  4017ba:	8b 04 24             	mov    (%rsp),%eax
  4017bd:	69 c0 79 82 00 00    	imul   $0x8279,%eax,%eax
  4017c3:	89 04 24             	mov    %eax,(%rsp)
  4017c6:	8b 44 24 0c          	mov    0xc(%rsp),%eax
  4017ca:	69 c0 7e 14 00 00    	imul   $0x147e,%eax,%eax
  4017d0:	89 44 24 0c          	mov    %eax,0xc(%rsp)
  4017d4:	8b 44 24 08          	mov    0x8(%rsp),%eax
  4017d8:	69 c0 83 4f 00 00    	imul   $0x4f83,%eax,%eax
  4017de:	89 44 24 08          	mov    %eax,0x8(%rsp)
  4017e2:	8b 44 24 24          	mov    0x24(%rsp),%eax
  4017e6:	69 c0 c9 2c 00 00    	imul   $0x2cc9,%eax,%eax
  4017ec:	89 44 24 24          	mov    %eax,0x24(%rsp)
  4017f0:	8b 44 24 04          	mov    0x4(%rsp),%eax
  4017f4:	69 c0 fa b2 00 00    	imul   $0xb2fa,%eax,%eax
  4017fa:	89 44 24 04          	mov    %eax,0x4(%rsp)
  4017fe:	ba 00 00 00 00       	mov    $0x0,%edx
  401803:	b8 00 00 00 00       	mov    $0x0,%eax
  401808:	eb 0a                	jmp    401814 <scramble+0x49b>
  40180a:	89 d1                	mov    %edx,%ecx
  40180c:	8b 0c 8c             	mov    (%rsp,%rcx,4),%ecx
  40180f:	01 c8                	add    %ecx,%eax
  401811:	83 c2 01             	add    $0x1,%edx
  401814:	83 fa 09             	cmp    $0x9,%edx
  401817:	76 f1                	jbe    40180a <scramble+0x491>
  401819:	48 8b 74 24 28       	mov    0x28(%rsp),%rsi
  40181e:	64 48 33 34 25 28 00 	xor    %fs:0x28,%rsi
  401825:	00 00 
  401827:	75 05                	jne    40182e <scramble+0x4b5>
  401829:	48 83 c4 38          	add    $0x38,%rsp
  40182d:	c3                   	retq   
  40182e:	e8 ad f4 ff ff       	callq  400ce0 <__stack_chk_fail@plt>

0000000000401833 <getbuf>:
  401833:	48 83 ec 28          	sub    $0x28,%rsp
  401837:	48 89 e7             	mov    %rsp,%rdi
  40183a:	e8 c4 03 00 00       	callq  401c03 <Gets>
  40183f:	b8 01 00 00 00       	mov    $0x1,%eax
  401844:	48 83 c4 28          	add    $0x28,%rsp
  401848:	c3                   	retq   

0000000000401849 <touch1>:
  401849:	48 83 ec 08          	sub    $0x8,%rsp
  40184d:	c7 05 a5 3c 20 00 01 	movl   $0x1,0x203ca5(%rip)        # 6054fc <vlevel>
  401854:	00 00 00 
  401857:	48 8d 3d cb 1a 00 00 	lea    0x1acb(%rip),%rdi        # 403329 <_IO_stdin_used+0x2f9>
  40185e:	e8 5d f4 ff ff       	callq  400cc0 <puts@plt>
  401863:	bf 01 00 00 00       	mov    $0x1,%edi
  401868:	e8 06 06 00 00       	callq  401e73 <validate>
  40186d:	bf 00 00 00 00       	mov    $0x0,%edi
  401872:	e8 b9 f5 ff ff       	callq  400e30 <exit@plt>

0000000000401877 <touch2>:
  401877:	48 83 ec 08          	sub    $0x8,%rsp
  40187b:	89 fa                	mov    %edi,%edx
  40187d:	c7 05 75 3c 20 00 02 	movl   $0x2,0x203c75(%rip)        # 6054fc <vlevel>
  401884:	00 00 00 
  401887:	39 3d 77 3c 20 00    	cmp    %edi,0x203c77(%rip)        # 605504 <cookie>
  40188d:	74 2a                	je     4018b9 <touch2+0x42>
  40188f:	48 8d 35 e2 1a 00 00 	lea    0x1ae2(%rip),%rsi        # 403378 <_IO_stdin_used+0x348>
  401896:	bf 01 00 00 00       	mov    $0x1,%edi
  40189b:	b8 00 00 00 00       	mov    $0x0,%eax
  4018a0:	e8 3b f5 ff ff       	callq  400de0 <__printf_chk@plt>
  4018a5:	bf 02 00 00 00       	mov    $0x2,%edi
  4018aa:	e8 94 06 00 00       	callq  401f43 <fail>
  4018af:	bf 00 00 00 00       	mov    $0x0,%edi
  4018b4:	e8 77 f5 ff ff       	callq  400e30 <exit@plt>
  4018b9:	48 8d 35 90 1a 00 00 	lea    0x1a90(%rip),%rsi        # 403350 <_IO_stdin_used+0x320>
  4018c0:	bf 01 00 00 00       	mov    $0x1,%edi
  4018c5:	b8 00 00 00 00       	mov    $0x0,%eax
  4018ca:	e8 11 f5 ff ff       	callq  400de0 <__printf_chk@plt>
  4018cf:	bf 02 00 00 00       	mov    $0x2,%edi
  4018d4:	e8 9a 05 00 00       	callq  401e73 <validate>
  4018d9:	eb d4                	jmp    4018af <touch2+0x38>

00000000004018db <hexmatch>:
  4018db:	41 54                	push   %r12
  4018dd:	55                   	push   %rbp
  4018de:	53                   	push   %rbx
  4018df:	48 83 c4 80          	add    $0xffffffffffffff80,%rsp
  4018e3:	89 fd                	mov    %edi,%ebp
  4018e5:	48 89 f3             	mov    %rsi,%rbx
  4018e8:	64 48 8b 04 25 28 00 	mov    %fs:0x28,%rax
  4018ef:	00 00 
  4018f1:	48 89 44 24 78       	mov    %rax,0x78(%rsp)
  4018f6:	31 c0                	xor    %eax,%eax
  4018f8:	e8 a3 f4 ff ff       	callq  400da0 <random@plt>
  4018fd:	48 89 c1             	mov    %rax,%rcx
  401900:	48 ba 0b d7 a3 70 3d 	movabs $0xa3d70a3d70a3d70b,%rdx
  401907:	0a d7 a3 
  40190a:	48 f7 ea             	imul   %rdx
  40190d:	48 01 ca             	add    %rcx,%rdx
  401910:	48 c1 fa 06          	sar    $0x6,%rdx
  401914:	48 89 c8             	mov    %rcx,%rax
  401917:	48 c1 f8 3f          	sar    $0x3f,%rax
  40191b:	48 29 c2             	sub    %rax,%rdx
  40191e:	48 8d 04 92          	lea    (%rdx,%rdx,4),%rax
  401922:	48 8d 14 80          	lea    (%rax,%rax,4),%rdx
  401926:	48 8d 04 95 00 00 00 	lea    0x0(,%rdx,4),%rax
  40192d:	00 
  40192e:	48 29 c1             	sub    %rax,%rcx
  401931:	4c 8d 24 0c          	lea    (%rsp,%rcx,1),%r12
  401935:	41 89 e8             	mov    %ebp,%r8d
  401938:	48 8d 0d 07 1a 00 00 	lea    0x1a07(%rip),%rcx        # 403346 <_IO_stdin_used+0x316>
  40193f:	48 c7 c2 ff ff ff ff 	mov    $0xffffffffffffffff,%rdx
  401946:	be 01 00 00 00       	mov    $0x1,%esi
  40194b:	4c 89 e7             	mov    %r12,%rdi
  40194e:	b8 00 00 00 00       	mov    $0x0,%eax
  401953:	e8 08 f5 ff ff       	callq  400e60 <__sprintf_chk@plt>
  401958:	ba 09 00 00 00       	mov    $0x9,%edx
  40195d:	4c 89 e6             	mov    %r12,%rsi
  401960:	48 89 df             	mov    %rbx,%rdi
  401963:	e8 38 f3 ff ff       	callq  400ca0 <strncmp@plt>
  401968:	85 c0                	test   %eax,%eax
  40196a:	0f 94 c0             	sete   %al
  40196d:	48 8b 5c 24 78       	mov    0x78(%rsp),%rbx
  401972:	64 48 33 1c 25 28 00 	xor    %fs:0x28,%rbx
  401979:	00 00 
  40197b:	75 0c                	jne    401989 <hexmatch+0xae>
  40197d:	0f b6 c0             	movzbl %al,%eax
  401980:	48 83 ec 80          	sub    $0xffffffffffffff80,%rsp
  401984:	5b                   	pop    %rbx
  401985:	5d                   	pop    %rbp
  401986:	41 5c                	pop    %r12
  401988:	c3                   	retq   
  401989:	e8 52 f3 ff ff       	callq  400ce0 <__stack_chk_fail@plt>

000000000040198e <touch3>:
  40198e:	53                   	push   %rbx
  40198f:	48 89 fb             	mov    %rdi,%rbx
  401992:	c7 05 60 3b 20 00 03 	movl   $0x3,0x203b60(%rip)        # 6054fc <vlevel>
  401999:	00 00 00 
  40199c:	48 89 fe             	mov    %rdi,%rsi
  40199f:	8b 3d 5f 3b 20 00    	mov    0x203b5f(%rip),%edi        # 605504 <cookie>
  4019a5:	e8 31 ff ff ff       	callq  4018db <hexmatch>
  4019aa:	85 c0                	test   %eax,%eax
  4019ac:	74 0b                	je     4019b9 <touch3+0x2b>
  4019ae:	8b 4b 0c             	mov    0xc(%rbx),%ecx
  4019b1:	3b 0d 4d 3b 20 00    	cmp    0x203b4d(%rip),%ecx        # 605504 <cookie>
  4019b7:	74 30                	je     4019e9 <touch3+0x5b>
  4019b9:	8b 4b 0c             	mov    0xc(%rbx),%ecx
  4019bc:	48 89 da             	mov    %rbx,%rdx
  4019bf:	48 8d 35 0a 1a 00 00 	lea    0x1a0a(%rip),%rsi        # 4033d0 <_IO_stdin_used+0x3a0>
  4019c6:	bf 01 00 00 00       	mov    $0x1,%edi
  4019cb:	b8 00 00 00 00       	mov    $0x0,%eax
  4019d0:	e8 0b f4 ff ff       	callq  400de0 <__printf_chk@plt>
  4019d5:	bf 03 00 00 00       	mov    $0x3,%edi
  4019da:	e8 64 05 00 00       	callq  401f43 <fail>
  4019df:	bf 00 00 00 00       	mov    $0x0,%edi
  4019e4:	e8 47 f4 ff ff       	callq  400e30 <exit@plt>
  4019e9:	48 89 da             	mov    %rbx,%rdx
  4019ec:	48 8d 35 ad 19 00 00 	lea    0x19ad(%rip),%rsi        # 4033a0 <_IO_stdin_used+0x370>
  4019f3:	bf 01 00 00 00       	mov    $0x1,%edi
  4019f8:	b8 00 00 00 00       	mov    $0x0,%eax
  4019fd:	e8 de f3 ff ff       	callq  400de0 <__printf_chk@plt>
  401a02:	bf 03 00 00 00       	mov    $0x3,%edi
  401a07:	e8 67 04 00 00       	callq  401e73 <validate>
  401a0c:	eb d1                	jmp    4019df <touch3+0x51>

0000000000401a0e <test>:
  401a0e:	48 83 ec 08          	sub    $0x8,%rsp
  401a12:	b8 00 00 00 00       	mov    $0x0,%eax
  401a17:	e8 17 fe ff ff       	callq  401833 <getbuf>
  401a1c:	89 c2                	mov    %eax,%edx
  401a1e:	48 8d 35 db 19 00 00 	lea    0x19db(%rip),%rsi        # 403400 <_IO_stdin_used+0x3d0>
  401a25:	bf 01 00 00 00       	mov    $0x1,%edi
  401a2a:	b8 00 00 00 00       	mov    $0x0,%eax
  401a2f:	e8 ac f3 ff ff       	callq  400de0 <__printf_chk@plt>
  401a34:	48 83 c4 08          	add    $0x8,%rsp
  401a38:	c3                   	retq   

0000000000401a39 <start_farm>:
  401a39:	b8 01 00 00 00       	mov    $0x1,%eax
  401a3e:	c3                   	retq   

0000000000401a3f <getval_396>:
  401a3f:	b8 48 89 c7 94       	mov    $0x94c78948,%eax
  401a44:	c3                   	retq   

0000000000401a45 <addval_159>:
  401a45:	8d 87 b0 48 89 c7    	lea    -0x3876b750(%rdi),%eax
  401a4b:	c3                   	retq   

0000000000401a4c <addval_218>:
  401a4c:	8d 87 58 90 c3 87    	lea    -0x783c6fa8(%rdi),%eax
  401a52:	c3                   	retq   

0000000000401a53 <getval_148>:
  401a53:	b8 77 58 90 c7       	mov    $0xc7905877,%eax
  401a58:	c3                   	retq   

0000000000401a59 <setval_322>:
  401a59:	c7 07 15 49 89 c7    	movl   $0xc7894915,(%rdi)
  401a5f:	c3                   	retq   

0000000000401a60 <getval_421>:
  401a60:	b8 2d ca 58 90       	mov    $0x9058ca2d,%eax
  401a65:	c3                   	retq   

0000000000401a66 <getval_288>:
  401a66:	b8 58 c1 5d e5       	mov    $0xe55dc158,%eax
  401a6b:	c3                   	retq   

0000000000401a6c <setval_398>:
  401a6c:	c7 07 48 89 c7 c3    	movl   $0xc3c78948,(%rdi)
  401a72:	c3                   	retq   

0000000000401a73 <mid_farm>:
  401a73:	b8 01 00 00 00       	mov    $0x1,%eax
  401a78:	c3                   	retq   

0000000000401a79 <add_xy>:
  401a79:	48 8d 04 37          	lea    (%rdi,%rsi,1),%rax
  401a7d:	c3                   	retq   

0000000000401a7e <addval_352>:
  401a7e:	8d 87 48 89 e0 90    	lea    -0x6f1f76b8(%rdi),%eax
  401a84:	c3                   	retq   

0000000000401a85 <addval_278>:
  401a85:	8d 87 48 89 e0 90    	lea    -0x6f1f76b8(%rdi),%eax
  401a8b:	c3                   	retq   

0000000000401a8c <getval_333>:
  401a8c:	b8 48 c9 e0 90       	mov    $0x90e0c948,%eax
  401a91:	c3                   	retq   

0000000000401a92 <setval_216>:
  401a92:	c7 07 c9 ce 90 c3    	movl   $0xc390cec9,(%rdi)
  401a98:	c3                   	retq   

0000000000401a99 <setval_340>:
  401a99:	c7 07 81 c2 20 d2    	movl   $0xd220c281,(%rdi)
  401a9f:	c3                   	retq   

0000000000401aa0 <setval_132>:
  401aa0:	c7 07 89 d1 84 db    	movl   $0xdb84d189,(%rdi)
  401aa6:	c3                   	retq   

0000000000401aa7 <addval_160>:
  401aa7:	8d 87 89 c2 60 c0    	lea    -0x3f9f3d77(%rdi),%eax
  401aad:	c3                   	retq   

0000000000401aae <setval_411>:
  401aae:	c7 07 89 d1 c1 88    	movl   $0x88c1d189,(%rdi)
  401ab4:	c3                   	retq   

0000000000401ab5 <addval_146>:
  401ab5:	8d 87 89 c2 78 c0    	lea    -0x3f873d77(%rdi),%eax
  401abb:	c3                   	retq   

0000000000401abc <setval_442>:
  401abc:	c7 07 81 d1 38 db    	movl   $0xdb38d181,(%rdi)
  401ac2:	c3                   	retq   

0000000000401ac3 <getval_200>:
  401ac3:	b8 a1 1e c9 ce       	mov    $0xcec91ea1,%eax
  401ac8:	c3                   	retq   

0000000000401ac9 <getval_228>:
  401ac9:	b8 89 d1 28 db       	mov    $0xdb28d189,%eax
  401ace:	c3                   	retq   

0000000000401acf <addval_370>:
  401acf:	8d 87 45 c9 d1 c3    	lea    -0x3c2e36bb(%rdi),%eax
  401ad5:	c3                   	retq   

0000000000401ad6 <getval_173>:
  401ad6:	b8 89 d1 48 c9       	mov    $0xc948d189,%eax
  401adb:	c3                   	retq   

0000000000401adc <addval_294>:
  401adc:	8d 87 89 ce 90 c3    	lea    -0x3c6f3177(%rdi),%eax
  401ae2:	c3                   	retq   

0000000000401ae3 <getval_154>:
  401ae3:	b8 89 d1 84 c0       	mov    $0xc084d189,%eax
  401ae8:	c3                   	retq   

0000000000401ae9 <getval_355>:
  401ae9:	b8 89 ce 28 db       	mov    $0xdb28ce89,%eax
  401aee:	c3                   	retq   

0000000000401aef <setval_125>:
  401aef:	c7 07 49 89 e0 c3    	movl   $0xc3e08949,(%rdi)
  401af5:	c3                   	retq   

0000000000401af6 <addval_310>:
  401af6:	8d 87 0c 5e 89 ce    	lea    -0x3176a1f4(%rdi),%eax
  401afc:	c3                   	retq   

0000000000401afd <addval_151>:
  401afd:	8d 87 48 89 e0 c1    	lea    -0x3e1f76b8(%rdi),%eax
  401b03:	c3                   	retq   

0000000000401b04 <getval_186>:
  401b04:	b8 89 c2 90 c3       	mov    $0xc390c289,%eax
  401b09:	c3                   	retq   

0000000000401b0a <addval_445>:
  401b0a:	8d 87 48 89 e0 91    	lea    -0x6e1f76b8(%rdi),%eax
  401b10:	c3                   	retq   

0000000000401b11 <addval_484>:
  401b11:	8d 87 48 c9 e0 c3    	lea    -0x3c1f36b8(%rdi),%eax
  401b17:	c3                   	retq   

0000000000401b18 <addval_285>:
  401b18:	8d 87 89 c2 84 d2    	lea    -0x2d7b3d77(%rdi),%eax
  401b1e:	c3                   	retq   

0000000000401b1f <addval_345>:
  401b1f:	8d 87 89 c2 91 90    	lea    -0x6f6e3d77(%rdi),%eax
  401b25:	c3                   	retq   

0000000000401b26 <getval_361>:
  401b26:	b8 76 c9 ce 90       	mov    $0x90cec976,%eax
  401b2b:	c3                   	retq   

0000000000401b2c <setval_485>:
  401b2c:	c7 07 81 c2 08 c9    	movl   $0xc908c281,(%rdi)
  401b32:	c3                   	retq   

0000000000401b33 <setval_276>:
  401b33:	c7 07 81 ce 38 c9    	movl   $0xc938ce81,(%rdi)
  401b39:	c3                   	retq   

0000000000401b3a <addval_115>:
  401b3a:	8d 87 89 d1 30 c0    	lea    -0x3fcf2e77(%rdi),%eax
  401b40:	c3                   	retq   

0000000000401b41 <addval_368>:
  401b41:	8d 87 89 ce 18 db    	lea    -0x24e73177(%rdi),%eax
  401b47:	c3                   	retq   

0000000000401b48 <getval_109>:
  401b48:	b8 88 c2 20 c9       	mov    $0xc920c288,%eax
  401b4d:	c3                   	retq   

0000000000401b4e <addval_317>:
  401b4e:	8d 87 48 89 e0 91    	lea    -0x6e1f76b8(%rdi),%eax
  401b54:	c3                   	retq   

0000000000401b55 <end_farm>:
  401b55:	b8 01 00 00 00       	mov    $0x1,%eax
  401b5a:	c3                   	retq   

0000000000401b5b <save_char>:
  401b5b:	8b 05 c3 45 20 00    	mov    0x2045c3(%rip),%eax        # 606124 <gets_cnt>
  401b61:	3d ff 03 00 00       	cmp    $0x3ff,%eax
  401b66:	7f 4a                	jg     401bb2 <save_char+0x57>
  401b68:	89 f9                	mov    %edi,%ecx
  401b6a:	c0 e9 04             	shr    $0x4,%cl
  401b6d:	8d 14 40             	lea    (%rax,%rax,2),%edx
  401b70:	4c 8d 05 a9 1b 00 00 	lea    0x1ba9(%rip),%r8        # 403720 <trans_char>
  401b77:	83 e1 0f             	and    $0xf,%ecx
  401b7a:	45 0f b6 0c 08       	movzbl (%r8,%rcx,1),%r9d
  401b7f:	48 8d 0d 9a 39 20 00 	lea    0x20399a(%rip),%rcx        # 605520 <gets_buf>
  401b86:	48 63 f2             	movslq %edx,%rsi
  401b89:	44 88 0c 31          	mov    %r9b,(%rcx,%rsi,1)
  401b8d:	8d 72 01             	lea    0x1(%rdx),%esi
  401b90:	83 e7 0f             	and    $0xf,%edi
  401b93:	41 0f b6 3c 38       	movzbl (%r8,%rdi,1),%edi
  401b98:	48 63 f6             	movslq %esi,%rsi
  401b9b:	40 88 3c 31          	mov    %dil,(%rcx,%rsi,1)
  401b9f:	83 c2 02             	add    $0x2,%edx
  401ba2:	48 63 d2             	movslq %edx,%rdx
  401ba5:	c6 04 11 20          	movb   $0x20,(%rcx,%rdx,1)
  401ba9:	83 c0 01             	add    $0x1,%eax
  401bac:	89 05 72 45 20 00    	mov    %eax,0x204572(%rip)        # 606124 <gets_cnt>
  401bb2:	f3 c3                	repz retq 

0000000000401bb4 <save_term>:
  401bb4:	8b 05 6a 45 20 00    	mov    0x20456a(%rip),%eax        # 606124 <gets_cnt>
  401bba:	8d 04 40             	lea    (%rax,%rax,2),%eax
  401bbd:	48 98                	cltq   
  401bbf:	48 8d 15 5a 39 20 00 	lea    0x20395a(%rip),%rdx        # 605520 <gets_buf>
  401bc6:	c6 04 02 00          	movb   $0x0,(%rdx,%rax,1)
  401bca:	c3                   	retq   

0000000000401bcb <check_fail>:
  401bcb:	48 83 ec 08          	sub    $0x8,%rsp
  401bcf:	0f be 15 52 45 20 00 	movsbl 0x204552(%rip),%edx        # 606128 <target_prefix>
  401bd6:	4c 8d 05 43 39 20 00 	lea    0x203943(%rip),%r8        # 605520 <gets_buf>
  401bdd:	8b 0d 15 39 20 00    	mov    0x203915(%rip),%ecx        # 6054f8 <check_level>
  401be3:	48 8d 35 38 18 00 00 	lea    0x1838(%rip),%rsi        # 403422 <_IO_stdin_used+0x3f2>
  401bea:	bf 01 00 00 00       	mov    $0x1,%edi
  401bef:	b8 00 00 00 00       	mov    $0x0,%eax
  401bf4:	e8 e7 f1 ff ff       	callq  400de0 <__printf_chk@plt>
  401bf9:	bf 01 00 00 00       	mov    $0x1,%edi
  401bfe:	e8 2d f2 ff ff       	callq  400e30 <exit@plt>

0000000000401c03 <Gets>:
  401c03:	41 54                	push   %r12
  401c05:	55                   	push   %rbp
  401c06:	53                   	push   %rbx
  401c07:	49 89 fc             	mov    %rdi,%r12
  401c0a:	c7 05 10 45 20 00 00 	movl   $0x0,0x204510(%rip)        # 606124 <gets_cnt>
  401c11:	00 00 00 
  401c14:	48 89 fb             	mov    %rdi,%rbx
  401c17:	eb 11                	jmp    401c2a <Gets+0x27>
  401c19:	48 8d 6b 01          	lea    0x1(%rbx),%rbp
  401c1d:	88 03                	mov    %al,(%rbx)
  401c1f:	0f b6 f8             	movzbl %al,%edi
  401c22:	e8 34 ff ff ff       	callq  401b5b <save_char>
  401c27:	48 89 eb             	mov    %rbp,%rbx
  401c2a:	48 8b 3d bf 38 20 00 	mov    0x2038bf(%rip),%rdi        # 6054f0 <infile>
  401c31:	e8 7a f1 ff ff       	callq  400db0 <_IO_getc@plt>
  401c36:	83 f8 ff             	cmp    $0xffffffff,%eax
  401c39:	74 05                	je     401c40 <Gets+0x3d>
  401c3b:	83 f8 0a             	cmp    $0xa,%eax
  401c3e:	75 d9                	jne    401c19 <Gets+0x16>
  401c40:	c6 03 00             	movb   $0x0,(%rbx)
  401c43:	b8 00 00 00 00       	mov    $0x0,%eax
  401c48:	e8 67 ff ff ff       	callq  401bb4 <save_term>
  401c4d:	4c 89 e0             	mov    %r12,%rax
  401c50:	5b                   	pop    %rbx
  401c51:	5d                   	pop    %rbp
  401c52:	41 5c                	pop    %r12
  401c54:	c3                   	retq   

0000000000401c55 <notify_server>:
  401c55:	55                   	push   %rbp
  401c56:	53                   	push   %rbx
  401c57:	48 81 ec 18 40 00 00 	sub    $0x4018,%rsp
  401c5e:	64 48 8b 04 25 28 00 	mov    %fs:0x28,%rax
  401c65:	00 00 
  401c67:	48 89 84 24 08 40 00 	mov    %rax,0x4008(%rsp)
  401c6e:	00 
  401c6f:	31 c0                	xor    %eax,%eax
  401c71:	83 3d 90 38 20 00 00 	cmpl   $0x0,0x203890(%rip)        # 605508 <is_checker>
  401c78:	0f 85 d2 00 00 00    	jne    401d50 <notify_server+0xfb>
  401c7e:	89 fb                	mov    %edi,%ebx
  401c80:	8b 05 9e 44 20 00    	mov    0x20449e(%rip),%eax        # 606124 <gets_cnt>
  401c86:	83 c0 64             	add    $0x64,%eax
  401c89:	3d 00 20 00 00       	cmp    $0x2000,%eax
  401c8e:	0f 8f dd 00 00 00    	jg     401d71 <notify_server+0x11c>
  401c94:	0f be 05 8d 44 20 00 	movsbl 0x20448d(%rip),%eax        # 606128 <target_prefix>
  401c9b:	83 3d e6 37 20 00 00 	cmpl   $0x0,0x2037e6(%rip)        # 605488 <notify>
  401ca2:	0f 84 e9 00 00 00    	je     401d91 <notify_server+0x13c>
  401ca8:	8b 15 52 38 20 00    	mov    0x203852(%rip),%edx        # 605500 <authkey>
  401cae:	85 db                	test   %ebx,%ebx
  401cb0:	0f 84 e5 00 00 00    	je     401d9b <notify_server+0x146>
  401cb6:	48 8d 2d 7b 17 00 00 	lea    0x177b(%rip),%rbp        # 403438 <_IO_stdin_used+0x408>
  401cbd:	48 89 e7             	mov    %rsp,%rdi
  401cc0:	48 8d 0d 59 38 20 00 	lea    0x203859(%rip),%rcx        # 605520 <gets_buf>
  401cc7:	51                   	push   %rcx
  401cc8:	56                   	push   %rsi
  401cc9:	50                   	push   %rax
  401cca:	52                   	push   %rdx
  401ccb:	49 89 e9             	mov    %rbp,%r9
  401cce:	44 8b 05 5b 34 20 00 	mov    0x20345b(%rip),%r8d        # 605130 <target_id>
  401cd5:	48 8d 0d 66 17 00 00 	lea    0x1766(%rip),%rcx        # 403442 <_IO_stdin_used+0x412>
  401cdc:	ba 00 20 00 00       	mov    $0x2000,%edx
  401ce1:	be 01 00 00 00       	mov    $0x1,%esi
  401ce6:	b8 00 00 00 00       	mov    $0x0,%eax
  401ceb:	e8 70 f1 ff ff       	callq  400e60 <__sprintf_chk@plt>
  401cf0:	48 83 c4 20          	add    $0x20,%rsp
  401cf4:	83 3d 8d 37 20 00 00 	cmpl   $0x0,0x20378d(%rip)        # 605488 <notify>
  401cfb:	0f 84 df 00 00 00    	je     401de0 <notify_server+0x18b>
  401d01:	85 db                	test   %ebx,%ebx
  401d03:	0f 84 c6 00 00 00    	je     401dcf <notify_server+0x17a>
  401d09:	48 89 e1             	mov    %rsp,%rcx
  401d0c:	4c 8d 8c 24 00 20 00 	lea    0x2000(%rsp),%r9
  401d13:	00 
  401d14:	41 b8 00 00 00 00    	mov    $0x0,%r8d
  401d1a:	48 8b 15 27 34 20 00 	mov    0x203427(%rip),%rdx        # 605148 <lab>
  401d21:	48 8b 35 28 34 20 00 	mov    0x203428(%rip),%rsi        # 605150 <course>
  401d28:	48 8b 3d 11 34 20 00 	mov    0x203411(%rip),%rdi        # 605140 <user_id>
  401d2f:	e8 af 11 00 00       	callq  402ee3 <driver_post>
  401d34:	85 c0                	test   %eax,%eax
  401d36:	78 6f                	js     401da7 <notify_server+0x152>
  401d38:	48 8d 3d 49 18 00 00 	lea    0x1849(%rip),%rdi        # 403588 <_IO_stdin_used+0x558>
  401d3f:	e8 7c ef ff ff       	callq  400cc0 <puts@plt>
  401d44:	48 8d 3d 1f 17 00 00 	lea    0x171f(%rip),%rdi        # 40346a <_IO_stdin_used+0x43a>
  401d4b:	e8 70 ef ff ff       	callq  400cc0 <puts@plt>
  401d50:	48 8b 84 24 08 40 00 	mov    0x4008(%rsp),%rax
  401d57:	00 
  401d58:	64 48 33 04 25 28 00 	xor    %fs:0x28,%rax
  401d5f:	00 00 
  401d61:	0f 85 07 01 00 00    	jne    401e6e <notify_server+0x219>
  401d67:	48 81 c4 18 40 00 00 	add    $0x4018,%rsp
  401d6e:	5b                   	pop    %rbx
  401d6f:	5d                   	pop    %rbp
  401d70:	c3                   	retq   
  401d71:	48 8d 35 e0 17 00 00 	lea    0x17e0(%rip),%rsi        # 403558 <_IO_stdin_used+0x528>
  401d78:	bf 01 00 00 00       	mov    $0x1,%edi
  401d7d:	b8 00 00 00 00       	mov    $0x0,%eax
  401d82:	e8 59 f0 ff ff       	callq  400de0 <__printf_chk@plt>
  401d87:	bf 01 00 00 00       	mov    $0x1,%edi
  401d8c:	e8 9f f0 ff ff       	callq  400e30 <exit@plt>
  401d91:	ba ff ff ff ff       	mov    $0xffffffff,%edx
  401d96:	e9 13 ff ff ff       	jmpq   401cae <notify_server+0x59>
  401d9b:	48 8d 2d 9b 16 00 00 	lea    0x169b(%rip),%rbp        # 40343d <_IO_stdin_used+0x40d>
  401da2:	e9 16 ff ff ff       	jmpq   401cbd <notify_server+0x68>
  401da7:	48 8d 94 24 00 20 00 	lea    0x2000(%rsp),%rdx
  401dae:	00 
  401daf:	48 8d 35 a8 16 00 00 	lea    0x16a8(%rip),%rsi        # 40345e <_IO_stdin_used+0x42e>
  401db6:	bf 01 00 00 00       	mov    $0x1,%edi
  401dbb:	b8 00 00 00 00       	mov    $0x0,%eax
  401dc0:	e8 1b f0 ff ff       	callq  400de0 <__printf_chk@plt>
  401dc5:	bf 01 00 00 00       	mov    $0x1,%edi
  401dca:	e8 61 f0 ff ff       	callq  400e30 <exit@plt>
  401dcf:	48 8d 3d 9e 16 00 00 	lea    0x169e(%rip),%rdi        # 403474 <_IO_stdin_used+0x444>
  401dd6:	e8 e5 ee ff ff       	callq  400cc0 <puts@plt>
  401ddb:	e9 70 ff ff ff       	jmpq   401d50 <notify_server+0xfb>
  401de0:	48 89 ea             	mov    %rbp,%rdx
  401de3:	48 8d 35 d6 17 00 00 	lea    0x17d6(%rip),%rsi        # 4035c0 <_IO_stdin_used+0x590>
  401dea:	bf 01 00 00 00       	mov    $0x1,%edi
  401def:	b8 00 00 00 00       	mov    $0x0,%eax
  401df4:	e8 e7 ef ff ff       	callq  400de0 <__printf_chk@plt>
  401df9:	48 8b 15 40 33 20 00 	mov    0x203340(%rip),%rdx        # 605140 <user_id>
  401e00:	48 8d 35 74 16 00 00 	lea    0x1674(%rip),%rsi        # 40347b <_IO_stdin_used+0x44b>
  401e07:	bf 01 00 00 00       	mov    $0x1,%edi
  401e0c:	b8 00 00 00 00       	mov    $0x0,%eax
  401e11:	e8 ca ef ff ff       	callq  400de0 <__printf_chk@plt>
  401e16:	48 8b 15 33 33 20 00 	mov    0x203333(%rip),%rdx        # 605150 <course>
  401e1d:	48 8d 35 64 16 00 00 	lea    0x1664(%rip),%rsi        # 403488 <_IO_stdin_used+0x458>
  401e24:	bf 01 00 00 00       	mov    $0x1,%edi
  401e29:	b8 00 00 00 00       	mov    $0x0,%eax
  401e2e:	e8 ad ef ff ff       	callq  400de0 <__printf_chk@plt>
  401e33:	48 8b 15 0e 33 20 00 	mov    0x20330e(%rip),%rdx        # 605148 <lab>
  401e3a:	48 8d 35 53 16 00 00 	lea    0x1653(%rip),%rsi        # 403494 <_IO_stdin_used+0x464>
  401e41:	bf 01 00 00 00       	mov    $0x1,%edi
  401e46:	b8 00 00 00 00       	mov    $0x0,%eax
  401e4b:	e8 90 ef ff ff       	callq  400de0 <__printf_chk@plt>
  401e50:	48 89 e2             	mov    %rsp,%rdx
  401e53:	48 8d 35 43 16 00 00 	lea    0x1643(%rip),%rsi        # 40349d <_IO_stdin_used+0x46d>
  401e5a:	bf 01 00 00 00       	mov    $0x1,%edi
  401e5f:	b8 00 00 00 00       	mov    $0x0,%eax
  401e64:	e8 77 ef ff ff       	callq  400de0 <__printf_chk@plt>
  401e69:	e9 e2 fe ff ff       	jmpq   401d50 <notify_server+0xfb>
  401e6e:	e8 6d ee ff ff       	callq  400ce0 <__stack_chk_fail@plt>

0000000000401e73 <validate>:
  401e73:	53                   	push   %rbx
  401e74:	89 fb                	mov    %edi,%ebx
  401e76:	83 3d 8b 36 20 00 00 	cmpl   $0x0,0x20368b(%rip)        # 605508 <is_checker>
  401e7d:	74 72                	je     401ef1 <validate+0x7e>
  401e7f:	39 3d 77 36 20 00    	cmp    %edi,0x203677(%rip)        # 6054fc <vlevel>
  401e85:	75 32                	jne    401eb9 <validate+0x46>
  401e87:	8b 15 6b 36 20 00    	mov    0x20366b(%rip),%edx        # 6054f8 <check_level>
  401e8d:	39 fa                	cmp    %edi,%edx
  401e8f:	75 3e                	jne    401ecf <validate+0x5c>
  401e91:	0f be 15 90 42 20 00 	movsbl 0x204290(%rip),%edx        # 606128 <target_prefix>
  401e98:	4c 8d 05 81 36 20 00 	lea    0x203681(%rip),%r8        # 605520 <gets_buf>
  401e9f:	89 f9                	mov    %edi,%ecx
  401ea1:	48 8d 35 1f 16 00 00 	lea    0x161f(%rip),%rsi        # 4034c7 <_IO_stdin_used+0x497>
  401ea8:	bf 01 00 00 00       	mov    $0x1,%edi
  401ead:	b8 00 00 00 00       	mov    $0x0,%eax
  401eb2:	e8 29 ef ff ff       	callq  400de0 <__printf_chk@plt>
  401eb7:	5b                   	pop    %rbx
  401eb8:	c3                   	retq   
  401eb9:	48 8d 3d e9 15 00 00 	lea    0x15e9(%rip),%rdi        # 4034a9 <_IO_stdin_used+0x479>
  401ec0:	e8 fb ed ff ff       	callq  400cc0 <puts@plt>
  401ec5:	b8 00 00 00 00       	mov    $0x0,%eax
  401eca:	e8 fc fc ff ff       	callq  401bcb <check_fail>
  401ecf:	89 f9                	mov    %edi,%ecx
  401ed1:	48 8d 35 10 17 00 00 	lea    0x1710(%rip),%rsi        # 4035e8 <_IO_stdin_used+0x5b8>
  401ed8:	bf 01 00 00 00       	mov    $0x1,%edi
  401edd:	b8 00 00 00 00       	mov    $0x0,%eax
  401ee2:	e8 f9 ee ff ff       	callq  400de0 <__printf_chk@plt>
  401ee7:	b8 00 00 00 00       	mov    $0x0,%eax
  401eec:	e8 da fc ff ff       	callq  401bcb <check_fail>
  401ef1:	39 3d 05 36 20 00    	cmp    %edi,0x203605(%rip)        # 6054fc <vlevel>
  401ef7:	74 1a                	je     401f13 <validate+0xa0>
  401ef9:	48 8d 3d a9 15 00 00 	lea    0x15a9(%rip),%rdi        # 4034a9 <_IO_stdin_used+0x479>
  401f00:	e8 bb ed ff ff       	callq  400cc0 <puts@plt>
  401f05:	89 de                	mov    %ebx,%esi
  401f07:	bf 00 00 00 00       	mov    $0x0,%edi
  401f0c:	e8 44 fd ff ff       	callq  401c55 <notify_server>
  401f11:	eb a4                	jmp    401eb7 <validate+0x44>
  401f13:	0f be 0d 0e 42 20 00 	movsbl 0x20420e(%rip),%ecx        # 606128 <target_prefix>
  401f1a:	89 fa                	mov    %edi,%edx
  401f1c:	48 8d 35 ed 16 00 00 	lea    0x16ed(%rip),%rsi        # 403610 <_IO_stdin_used+0x5e0>
  401f23:	bf 01 00 00 00       	mov    $0x1,%edi
  401f28:	b8 00 00 00 00       	mov    $0x0,%eax
  401f2d:	e8 ae ee ff ff       	callq  400de0 <__printf_chk@plt>
  401f32:	89 de                	mov    %ebx,%esi
  401f34:	bf 01 00 00 00       	mov    $0x1,%edi
  401f39:	e8 17 fd ff ff       	callq  401c55 <notify_server>
  401f3e:	e9 74 ff ff ff       	jmpq   401eb7 <validate+0x44>

0000000000401f43 <fail>:
  401f43:	48 83 ec 08          	sub    $0x8,%rsp
  401f47:	83 3d ba 35 20 00 00 	cmpl   $0x0,0x2035ba(%rip)        # 605508 <is_checker>
  401f4e:	75 11                	jne    401f61 <fail+0x1e>
  401f50:	89 fe                	mov    %edi,%esi
  401f52:	bf 00 00 00 00       	mov    $0x0,%edi
  401f57:	e8 f9 fc ff ff       	callq  401c55 <notify_server>
  401f5c:	48 83 c4 08          	add    $0x8,%rsp
  401f60:	c3                   	retq   
  401f61:	b8 00 00 00 00       	mov    $0x0,%eax
  401f66:	e8 60 fc ff ff       	callq  401bcb <check_fail>

0000000000401f6b <bushandler>:
  401f6b:	48 83 ec 08          	sub    $0x8,%rsp
  401f6f:	83 3d 92 35 20 00 00 	cmpl   $0x0,0x203592(%rip)        # 605508 <is_checker>
  401f76:	74 16                	je     401f8e <bushandler+0x23>
  401f78:	48 8d 3d 5d 15 00 00 	lea    0x155d(%rip),%rdi        # 4034dc <_IO_stdin_used+0x4ac>
  401f7f:	e8 3c ed ff ff       	callq  400cc0 <puts@plt>
  401f84:	b8 00 00 00 00       	mov    $0x0,%eax
  401f89:	e8 3d fc ff ff       	callq  401bcb <check_fail>
  401f8e:	48 8d 3d b3 16 00 00 	lea    0x16b3(%rip),%rdi        # 403648 <_IO_stdin_used+0x618>
  401f95:	e8 26 ed ff ff       	callq  400cc0 <puts@plt>
  401f9a:	48 8d 3d 45 15 00 00 	lea    0x1545(%rip),%rdi        # 4034e6 <_IO_stdin_used+0x4b6>
  401fa1:	e8 1a ed ff ff       	callq  400cc0 <puts@plt>
  401fa6:	be 00 00 00 00       	mov    $0x0,%esi
  401fab:	bf 00 00 00 00       	mov    $0x0,%edi
  401fb0:	e8 a0 fc ff ff       	callq  401c55 <notify_server>
  401fb5:	bf 01 00 00 00       	mov    $0x1,%edi
  401fba:	e8 71 ee ff ff       	callq  400e30 <exit@plt>

0000000000401fbf <seghandler>:
  401fbf:	48 83 ec 08          	sub    $0x8,%rsp
  401fc3:	83 3d 3e 35 20 00 00 	cmpl   $0x0,0x20353e(%rip)        # 605508 <is_checker>
  401fca:	74 16                	je     401fe2 <seghandler+0x23>
  401fcc:	48 8d 3d 29 15 00 00 	lea    0x1529(%rip),%rdi        # 4034fc <_IO_stdin_used+0x4cc>
  401fd3:	e8 e8 ec ff ff       	callq  400cc0 <puts@plt>
  401fd8:	b8 00 00 00 00       	mov    $0x0,%eax
  401fdd:	e8 e9 fb ff ff       	callq  401bcb <check_fail>
  401fe2:	48 8d 3d 7f 16 00 00 	lea    0x167f(%rip),%rdi        # 403668 <_IO_stdin_used+0x638>
  401fe9:	e8 d2 ec ff ff       	callq  400cc0 <puts@plt>
  401fee:	48 8d 3d f1 14 00 00 	lea    0x14f1(%rip),%rdi        # 4034e6 <_IO_stdin_used+0x4b6>
  401ff5:	e8 c6 ec ff ff       	callq  400cc0 <puts@plt>
  401ffa:	be 00 00 00 00       	mov    $0x0,%esi
  401fff:	bf 00 00 00 00       	mov    $0x0,%edi
  402004:	e8 4c fc ff ff       	callq  401c55 <notify_server>
  402009:	bf 01 00 00 00       	mov    $0x1,%edi
  40200e:	e8 1d ee ff ff       	callq  400e30 <exit@plt>

0000000000402013 <illegalhandler>:
  402013:	48 83 ec 08          	sub    $0x8,%rsp
  402017:	83 3d ea 34 20 00 00 	cmpl   $0x0,0x2034ea(%rip)        # 605508 <is_checker>
  40201e:	74 16                	je     402036 <illegalhandler+0x23>
  402020:	48 8d 3d e8 14 00 00 	lea    0x14e8(%rip),%rdi        # 40350f <_IO_stdin_used+0x4df>
  402027:	e8 94 ec ff ff       	callq  400cc0 <puts@plt>
  40202c:	b8 00 00 00 00       	mov    $0x0,%eax
  402031:	e8 95 fb ff ff       	callq  401bcb <check_fail>
  402036:	48 8d 3d 53 16 00 00 	lea    0x1653(%rip),%rdi        # 403690 <_IO_stdin_used+0x660>
  40203d:	e8 7e ec ff ff       	callq  400cc0 <puts@plt>
  402042:	48 8d 3d 9d 14 00 00 	lea    0x149d(%rip),%rdi        # 4034e6 <_IO_stdin_used+0x4b6>
  402049:	e8 72 ec ff ff       	callq  400cc0 <puts@plt>
  40204e:	be 00 00 00 00       	mov    $0x0,%esi
  402053:	bf 00 00 00 00       	mov    $0x0,%edi
  402058:	e8 f8 fb ff ff       	callq  401c55 <notify_server>
  40205d:	bf 01 00 00 00       	mov    $0x1,%edi
  402062:	e8 c9 ed ff ff       	callq  400e30 <exit@plt>

0000000000402067 <sigalrmhandler>:
  402067:	48 83 ec 08          	sub    $0x8,%rsp
  40206b:	83 3d 96 34 20 00 00 	cmpl   $0x0,0x203496(%rip)        # 605508 <is_checker>
  402072:	74 16                	je     40208a <sigalrmhandler+0x23>
  402074:	48 8d 3d a8 14 00 00 	lea    0x14a8(%rip),%rdi        # 403523 <_IO_stdin_used+0x4f3>
  40207b:	e8 40 ec ff ff       	callq  400cc0 <puts@plt>
  402080:	b8 00 00 00 00       	mov    $0x0,%eax
  402085:	e8 41 fb ff ff       	callq  401bcb <check_fail>
  40208a:	ba 05 00 00 00       	mov    $0x5,%edx
  40208f:	48 8d 35 2a 16 00 00 	lea    0x162a(%rip),%rsi        # 4036c0 <_IO_stdin_used+0x690>
  402096:	bf 01 00 00 00       	mov    $0x1,%edi
  40209b:	b8 00 00 00 00       	mov    $0x0,%eax
  4020a0:	e8 3b ed ff ff       	callq  400de0 <__printf_chk@plt>
  4020a5:	be 00 00 00 00       	mov    $0x0,%esi
  4020aa:	bf 00 00 00 00       	mov    $0x0,%edi
  4020af:	e8 a1 fb ff ff       	callq  401c55 <notify_server>
  4020b4:	bf 01 00 00 00       	mov    $0x1,%edi
  4020b9:	e8 72 ed ff ff       	callq  400e30 <exit@plt>

00000000004020be <launch>:
  4020be:	55                   	push   %rbp
  4020bf:	48 89 e5             	mov    %rsp,%rbp
  4020c2:	48 83 ec 10          	sub    $0x10,%rsp
  4020c6:	48 89 fa             	mov    %rdi,%rdx
  4020c9:	64 48 8b 04 25 28 00 	mov    %fs:0x28,%rax
  4020d0:	00 00 
  4020d2:	48 89 45 f8          	mov    %rax,-0x8(%rbp)
  4020d6:	31 c0                	xor    %eax,%eax
  4020d8:	48 8d 47 1e          	lea    0x1e(%rdi),%rax
  4020dc:	48 83 e0 f0          	and    $0xfffffffffffffff0,%rax
  4020e0:	48 29 c4             	sub    %rax,%rsp
  4020e3:	48 8d 7c 24 0f       	lea    0xf(%rsp),%rdi
  4020e8:	48 83 e7 f0          	and    $0xfffffffffffffff0,%rdi
  4020ec:	be f4 00 00 00       	mov    $0xf4,%esi
  4020f1:	e8 0a ec ff ff       	callq  400d00 <memset@plt>
  4020f6:	48 8b 05 a3 33 20 00 	mov    0x2033a3(%rip),%rax        # 6054a0 <stdin@@GLIBC_2.2.5>
  4020fd:	48 39 05 ec 33 20 00 	cmp    %rax,0x2033ec(%rip)        # 6054f0 <infile>
  402104:	74 3a                	je     402140 <launch+0x82>
  402106:	c7 05 ec 33 20 00 00 	movl   $0x0,0x2033ec(%rip)        # 6054fc <vlevel>
  40210d:	00 00 00 
  402110:	b8 00 00 00 00       	mov    $0x0,%eax
  402115:	e8 f4 f8 ff ff       	callq  401a0e <test>
  40211a:	83 3d e7 33 20 00 00 	cmpl   $0x0,0x2033e7(%rip)        # 605508 <is_checker>
  402121:	75 35                	jne    402158 <launch+0x9a>
  402123:	48 8d 3d 19 14 00 00 	lea    0x1419(%rip),%rdi        # 403543 <_IO_stdin_used+0x513>
  40212a:	e8 91 eb ff ff       	callq  400cc0 <puts@plt>
  40212f:	48 8b 45 f8          	mov    -0x8(%rbp),%rax
  402133:	64 48 33 04 25 28 00 	xor    %fs:0x28,%rax
  40213a:	00 00 
  40213c:	75 30                	jne    40216e <launch+0xb0>
  40213e:	c9                   	leaveq 
  40213f:	c3                   	retq   
  402140:	48 8d 35 e4 13 00 00 	lea    0x13e4(%rip),%rsi        # 40352b <_IO_stdin_used+0x4fb>
  402147:	bf 01 00 00 00       	mov    $0x1,%edi
  40214c:	b8 00 00 00 00       	mov    $0x0,%eax
  402151:	e8 8a ec ff ff       	callq  400de0 <__printf_chk@plt>
  402156:	eb ae                	jmp    402106 <launch+0x48>
  402158:	48 8d 3d d9 13 00 00 	lea    0x13d9(%rip),%rdi        # 403538 <_IO_stdin_used+0x508>
  40215f:	e8 5c eb ff ff       	callq  400cc0 <puts@plt>
  402164:	b8 00 00 00 00       	mov    $0x0,%eax
  402169:	e8 5d fa ff ff       	callq  401bcb <check_fail>
  40216e:	e8 6d eb ff ff       	callq  400ce0 <__stack_chk_fail@plt>

0000000000402173 <stable_launch>:
  402173:	53                   	push   %rbx
  402174:	48 89 3d 6d 33 20 00 	mov    %rdi,0x20336d(%rip)        # 6054e8 <global_offset>
  40217b:	41 b9 00 00 00 00    	mov    $0x0,%r9d
  402181:	41 b8 00 00 00 00    	mov    $0x0,%r8d
  402187:	b9 32 01 00 00       	mov    $0x132,%ecx
  40218c:	ba 07 00 00 00       	mov    $0x7,%edx
  402191:	be 00 00 10 00       	mov    $0x100000,%esi
  402196:	bf 00 60 58 55       	mov    $0x55586000,%edi
  40219b:	e8 50 eb ff ff       	callq  400cf0 <mmap@plt>
  4021a0:	48 89 c3             	mov    %rax,%rbx
  4021a3:	48 3d 00 60 58 55    	cmp    $0x55586000,%rax
  4021a9:	75 43                	jne    4021ee <stable_launch+0x7b>
  4021ab:	48 8d 90 f8 ff 0f 00 	lea    0xffff8(%rax),%rdx
  4021b2:	48 89 15 77 3f 20 00 	mov    %rdx,0x203f77(%rip)        # 606130 <stack_top>
  4021b9:	48 89 e0             	mov    %rsp,%rax
  4021bc:	48 89 d4             	mov    %rdx,%rsp
  4021bf:	48 89 c2             	mov    %rax,%rdx
  4021c2:	48 89 15 17 33 20 00 	mov    %rdx,0x203317(%rip)        # 6054e0 <global_save_stack>
  4021c9:	48 8b 3d 18 33 20 00 	mov    0x203318(%rip),%rdi        # 6054e8 <global_offset>
  4021d0:	e8 e9 fe ff ff       	callq  4020be <launch>
  4021d5:	48 8b 05 04 33 20 00 	mov    0x203304(%rip),%rax        # 6054e0 <global_save_stack>
  4021dc:	48 89 c4             	mov    %rax,%rsp
  4021df:	be 00 00 10 00       	mov    $0x100000,%esi
  4021e4:	48 89 df             	mov    %rbx,%rdi
  4021e7:	e8 e4 eb ff ff       	callq  400dd0 <munmap@plt>
  4021ec:	5b                   	pop    %rbx
  4021ed:	c3                   	retq   
  4021ee:	be 00 00 10 00       	mov    $0x100000,%esi
  4021f3:	48 89 c7             	mov    %rax,%rdi
  4021f6:	e8 d5 eb ff ff       	callq  400dd0 <munmap@plt>
  4021fb:	b9 00 60 58 55       	mov    $0x55586000,%ecx
  402200:	48 8d 15 f1 14 00 00 	lea    0x14f1(%rip),%rdx        # 4036f8 <_IO_stdin_used+0x6c8>
  402207:	be 01 00 00 00       	mov    $0x1,%esi
  40220c:	48 8b 3d ad 32 20 00 	mov    0x2032ad(%rip),%rdi        # 6054c0 <stderr@@GLIBC_2.2.5>
  402213:	b8 00 00 00 00       	mov    $0x0,%eax
  402218:	e8 33 ec ff ff       	callq  400e50 <__fprintf_chk@plt>
  40221d:	bf 01 00 00 00       	mov    $0x1,%edi
  402222:	e8 09 ec ff ff       	callq  400e30 <exit@plt>

0000000000402227 <rio_readinitb>:
  402227:	89 37                	mov    %esi,(%rdi)
  402229:	c7 47 04 00 00 00 00 	movl   $0x0,0x4(%rdi)
  402230:	48 8d 47 10          	lea    0x10(%rdi),%rax
  402234:	48 89 47 08          	mov    %rax,0x8(%rdi)
  402238:	c3                   	retq   

0000000000402239 <sigalrm_handler>:
  402239:	48 83 ec 08          	sub    $0x8,%rsp
  40223d:	b9 00 00 00 00       	mov    $0x0,%ecx
  402242:	48 8d 15 e7 14 00 00 	lea    0x14e7(%rip),%rdx        # 403730 <trans_char+0x10>
  402249:	be 01 00 00 00       	mov    $0x1,%esi
  40224e:	48 8b 3d 6b 32 20 00 	mov    0x20326b(%rip),%rdi        # 6054c0 <stderr@@GLIBC_2.2.5>
  402255:	b8 00 00 00 00       	mov    $0x0,%eax
  40225a:	e8 f1 eb ff ff       	callq  400e50 <__fprintf_chk@plt>
  40225f:	bf 01 00 00 00       	mov    $0x1,%edi
  402264:	e8 c7 eb ff ff       	callq  400e30 <exit@plt>

0000000000402269 <rio_writen>:
  402269:	41 55                	push   %r13
  40226b:	41 54                	push   %r12
  40226d:	55                   	push   %rbp
  40226e:	53                   	push   %rbx
  40226f:	48 83 ec 08          	sub    $0x8,%rsp
  402273:	41 89 fc             	mov    %edi,%r12d
  402276:	48 89 f5             	mov    %rsi,%rbp
  402279:	49 89 d5             	mov    %rdx,%r13
  40227c:	48 89 d3             	mov    %rdx,%rbx
  40227f:	eb 06                	jmp    402287 <rio_writen+0x1e>
  402281:	48 29 c3             	sub    %rax,%rbx
  402284:	48 01 c5             	add    %rax,%rbp
  402287:	48 85 db             	test   %rbx,%rbx
  40228a:	74 24                	je     4022b0 <rio_writen+0x47>
  40228c:	48 89 da             	mov    %rbx,%rdx
  40228f:	48 89 ee             	mov    %rbp,%rsi
  402292:	44 89 e7             	mov    %r12d,%edi
  402295:	e8 36 ea ff ff       	callq  400cd0 <write@plt>
  40229a:	48 85 c0             	test   %rax,%rax
  40229d:	7f e2                	jg     402281 <rio_writen+0x18>
  40229f:	e8 dc e9 ff ff       	callq  400c80 <__errno_location@plt>
  4022a4:	83 38 04             	cmpl   $0x4,(%rax)
  4022a7:	75 15                	jne    4022be <rio_writen+0x55>
  4022a9:	b8 00 00 00 00       	mov    $0x0,%eax
  4022ae:	eb d1                	jmp    402281 <rio_writen+0x18>
  4022b0:	4c 89 e8             	mov    %r13,%rax
  4022b3:	48 83 c4 08          	add    $0x8,%rsp
  4022b7:	5b                   	pop    %rbx
  4022b8:	5d                   	pop    %rbp
  4022b9:	41 5c                	pop    %r12
  4022bb:	41 5d                	pop    %r13
  4022bd:	c3                   	retq   
  4022be:	48 c7 c0 ff ff ff ff 	mov    $0xffffffffffffffff,%rax
  4022c5:	eb ec                	jmp    4022b3 <rio_writen+0x4a>

00000000004022c7 <rio_read>:
  4022c7:	41 55                	push   %r13
  4022c9:	41 54                	push   %r12
  4022cb:	55                   	push   %rbp
  4022cc:	53                   	push   %rbx
  4022cd:	48 83 ec 08          	sub    $0x8,%rsp
  4022d1:	48 89 fb             	mov    %rdi,%rbx
  4022d4:	49 89 f5             	mov    %rsi,%r13
  4022d7:	49 89 d4             	mov    %rdx,%r12
  4022da:	eb 0a                	jmp    4022e6 <rio_read+0x1f>
  4022dc:	e8 9f e9 ff ff       	callq  400c80 <__errno_location@plt>
  4022e1:	83 38 04             	cmpl   $0x4,(%rax)
  4022e4:	75 5c                	jne    402342 <rio_read+0x7b>
  4022e6:	8b 6b 04             	mov    0x4(%rbx),%ebp
  4022e9:	85 ed                	test   %ebp,%ebp
  4022eb:	7f 24                	jg     402311 <rio_read+0x4a>
  4022ed:	48 8d 6b 10          	lea    0x10(%rbx),%rbp
  4022f1:	8b 3b                	mov    (%rbx),%edi
  4022f3:	ba 00 20 00 00       	mov    $0x2000,%edx
  4022f8:	48 89 ee             	mov    %rbp,%rsi
  4022fb:	e8 30 ea ff ff       	callq  400d30 <read@plt>
  402300:	89 43 04             	mov    %eax,0x4(%rbx)
  402303:	85 c0                	test   %eax,%eax
  402305:	78 d5                	js     4022dc <rio_read+0x15>
  402307:	85 c0                	test   %eax,%eax
  402309:	74 40                	je     40234b <rio_read+0x84>
  40230b:	48 89 6b 08          	mov    %rbp,0x8(%rbx)
  40230f:	eb d5                	jmp    4022e6 <rio_read+0x1f>
  402311:	89 e8                	mov    %ebp,%eax
  402313:	4c 39 e0             	cmp    %r12,%rax
  402316:	72 03                	jb     40231b <rio_read+0x54>
  402318:	44 89 e5             	mov    %r12d,%ebp
  40231b:	4c 63 e5             	movslq %ebp,%r12
  40231e:	48 8b 73 08          	mov    0x8(%rbx),%rsi
  402322:	4c 89 e2             	mov    %r12,%rdx
  402325:	4c 89 ef             	mov    %r13,%rdi
  402328:	e8 53 ea ff ff       	callq  400d80 <memcpy@plt>
  40232d:	4c 01 63 08          	add    %r12,0x8(%rbx)
  402331:	29 6b 04             	sub    %ebp,0x4(%rbx)
  402334:	4c 89 e0             	mov    %r12,%rax
  402337:	48 83 c4 08          	add    $0x8,%rsp
  40233b:	5b                   	pop    %rbx
  40233c:	5d                   	pop    %rbp
  40233d:	41 5c                	pop    %r12
  40233f:	41 5d                	pop    %r13
  402341:	c3                   	retq   
  402342:	48 c7 c0 ff ff ff ff 	mov    $0xffffffffffffffff,%rax
  402349:	eb ec                	jmp    402337 <rio_read+0x70>
  40234b:	b8 00 00 00 00       	mov    $0x0,%eax
  402350:	eb e5                	jmp    402337 <rio_read+0x70>

0000000000402352 <rio_readlineb>:
  402352:	41 55                	push   %r13
  402354:	41 54                	push   %r12
  402356:	55                   	push   %rbp
  402357:	53                   	push   %rbx
  402358:	48 83 ec 18          	sub    $0x18,%rsp
  40235c:	49 89 fd             	mov    %rdi,%r13
  40235f:	48 89 f5             	mov    %rsi,%rbp
  402362:	49 89 d4             	mov    %rdx,%r12
  402365:	64 48 8b 04 25 28 00 	mov    %fs:0x28,%rax
  40236c:	00 00 
  40236e:	48 89 44 24 08       	mov    %rax,0x8(%rsp)
  402373:	31 c0                	xor    %eax,%eax
  402375:	bb 01 00 00 00       	mov    $0x1,%ebx
  40237a:	4c 39 e3             	cmp    %r12,%rbx
  40237d:	73 47                	jae    4023c6 <rio_readlineb+0x74>
  40237f:	48 8d 74 24 07       	lea    0x7(%rsp),%rsi
  402384:	ba 01 00 00 00       	mov    $0x1,%edx
  402389:	4c 89 ef             	mov    %r13,%rdi
  40238c:	e8 36 ff ff ff       	callq  4022c7 <rio_read>
  402391:	83 f8 01             	cmp    $0x1,%eax
  402394:	75 1c                	jne    4023b2 <rio_readlineb+0x60>
  402396:	48 8d 45 01          	lea    0x1(%rbp),%rax
  40239a:	0f b6 54 24 07       	movzbl 0x7(%rsp),%edx
  40239f:	88 55 00             	mov    %dl,0x0(%rbp)
  4023a2:	80 7c 24 07 0a       	cmpb   $0xa,0x7(%rsp)
  4023a7:	74 1a                	je     4023c3 <rio_readlineb+0x71>
  4023a9:	48 83 c3 01          	add    $0x1,%rbx
  4023ad:	48 89 c5             	mov    %rax,%rbp
  4023b0:	eb c8                	jmp    40237a <rio_readlineb+0x28>
  4023b2:	85 c0                	test   %eax,%eax
  4023b4:	75 32                	jne    4023e8 <rio_readlineb+0x96>
  4023b6:	48 83 fb 01          	cmp    $0x1,%rbx
  4023ba:	75 0a                	jne    4023c6 <rio_readlineb+0x74>
  4023bc:	b8 00 00 00 00       	mov    $0x0,%eax
  4023c1:	eb 0a                	jmp    4023cd <rio_readlineb+0x7b>
  4023c3:	48 89 c5             	mov    %rax,%rbp
  4023c6:	c6 45 00 00          	movb   $0x0,0x0(%rbp)
  4023ca:	48 89 d8             	mov    %rbx,%rax
  4023cd:	48 8b 4c 24 08       	mov    0x8(%rsp),%rcx
  4023d2:	64 48 33 0c 25 28 00 	xor    %fs:0x28,%rcx
  4023d9:	00 00 
  4023db:	75 14                	jne    4023f1 <rio_readlineb+0x9f>
  4023dd:	48 83 c4 18          	add    $0x18,%rsp
  4023e1:	5b                   	pop    %rbx
  4023e2:	5d                   	pop    %rbp
  4023e3:	41 5c                	pop    %r12
  4023e5:	41 5d                	pop    %r13
  4023e7:	c3                   	retq   
  4023e8:	48 c7 c0 ff ff ff ff 	mov    $0xffffffffffffffff,%rax
  4023ef:	eb dc                	jmp    4023cd <rio_readlineb+0x7b>
  4023f1:	e8 ea e8 ff ff       	callq  400ce0 <__stack_chk_fail@plt>

00000000004023f6 <urlencode>:
  4023f6:	41 54                	push   %r12
  4023f8:	55                   	push   %rbp
  4023f9:	53                   	push   %rbx
  4023fa:	48 83 ec 10          	sub    $0x10,%rsp
  4023fe:	48 89 fb             	mov    %rdi,%rbx
  402401:	48 89 f5             	mov    %rsi,%rbp
  402404:	64 48 8b 04 25 28 00 	mov    %fs:0x28,%rax
  40240b:	00 00 
  40240d:	48 89 44 24 08       	mov    %rax,0x8(%rsp)
  402412:	31 c0                	xor    %eax,%eax
  402414:	48 c7 c1 ff ff ff ff 	mov    $0xffffffffffffffff,%rcx
  40241b:	f2 ae                	repnz scas %es:(%rdi),%al
  40241d:	48 89 ce             	mov    %rcx,%rsi
  402420:	48 f7 d6             	not    %rsi
  402423:	8d 46 ff             	lea    -0x1(%rsi),%eax
  402426:	eb 0f                	jmp    402437 <urlencode+0x41>
  402428:	44 88 45 00          	mov    %r8b,0x0(%rbp)
  40242c:	48 8d 6d 01          	lea    0x1(%rbp),%rbp
  402430:	48 83 c3 01          	add    $0x1,%rbx
  402434:	44 89 e0             	mov    %r12d,%eax
  402437:	44 8d 60 ff          	lea    -0x1(%rax),%r12d
  40243b:	85 c0                	test   %eax,%eax
  40243d:	0f 84 a8 00 00 00    	je     4024eb <urlencode+0xf5>
  402443:	44 0f b6 03          	movzbl (%rbx),%r8d
  402447:	41 80 f8 2a          	cmp    $0x2a,%r8b
  40244b:	0f 94 c2             	sete   %dl
  40244e:	41 80 f8 2d          	cmp    $0x2d,%r8b
  402452:	0f 94 c0             	sete   %al
  402455:	08 c2                	or     %al,%dl
  402457:	75 cf                	jne    402428 <urlencode+0x32>
  402459:	41 80 f8 2e          	cmp    $0x2e,%r8b
  40245d:	74 c9                	je     402428 <urlencode+0x32>
  40245f:	41 80 f8 5f          	cmp    $0x5f,%r8b
  402463:	74 c3                	je     402428 <urlencode+0x32>
  402465:	41 8d 40 d0          	lea    -0x30(%r8),%eax
  402469:	3c 09                	cmp    $0x9,%al
  40246b:	76 bb                	jbe    402428 <urlencode+0x32>
  40246d:	41 8d 40 bf          	lea    -0x41(%r8),%eax
  402471:	3c 19                	cmp    $0x19,%al
  402473:	76 b3                	jbe    402428 <urlencode+0x32>
  402475:	41 8d 40 9f          	lea    -0x61(%r8),%eax
  402479:	3c 19                	cmp    $0x19,%al
  40247b:	76 ab                	jbe    402428 <urlencode+0x32>
  40247d:	41 80 f8 20          	cmp    $0x20,%r8b
  402481:	74 56                	je     4024d9 <urlencode+0xe3>
  402483:	41 8d 40 e0          	lea    -0x20(%r8),%eax
  402487:	3c 5f                	cmp    $0x5f,%al
  402489:	0f 96 c2             	setbe  %dl
  40248c:	41 80 f8 09          	cmp    $0x9,%r8b
  402490:	0f 94 c0             	sete   %al
  402493:	08 c2                	or     %al,%dl
  402495:	74 4f                	je     4024e6 <urlencode+0xf0>
  402497:	48 89 e7             	mov    %rsp,%rdi
  40249a:	45 0f b6 c0          	movzbl %r8b,%r8d
  40249e:	48 8d 0d 23 13 00 00 	lea    0x1323(%rip),%rcx        # 4037c8 <trans_char+0xa8>
  4024a5:	ba 08 00 00 00       	mov    $0x8,%edx
  4024aa:	be 01 00 00 00       	mov    $0x1,%esi
  4024af:	b8 00 00 00 00       	mov    $0x0,%eax
  4024b4:	e8 a7 e9 ff ff       	callq  400e60 <__sprintf_chk@plt>
  4024b9:	0f b6 04 24          	movzbl (%rsp),%eax
  4024bd:	88 45 00             	mov    %al,0x0(%rbp)
  4024c0:	0f b6 44 24 01       	movzbl 0x1(%rsp),%eax
  4024c5:	88 45 01             	mov    %al,0x1(%rbp)
  4024c8:	0f b6 44 24 02       	movzbl 0x2(%rsp),%eax
  4024cd:	88 45 02             	mov    %al,0x2(%rbp)
  4024d0:	48 8d 6d 03          	lea    0x3(%rbp),%rbp
  4024d4:	e9 57 ff ff ff       	jmpq   402430 <urlencode+0x3a>
  4024d9:	c6 45 00 2b          	movb   $0x2b,0x0(%rbp)
  4024dd:	48 8d 6d 01          	lea    0x1(%rbp),%rbp
  4024e1:	e9 4a ff ff ff       	jmpq   402430 <urlencode+0x3a>
  4024e6:	b8 ff ff ff ff       	mov    $0xffffffff,%eax
  4024eb:	48 8b 74 24 08       	mov    0x8(%rsp),%rsi
  4024f0:	64 48 33 34 25 28 00 	xor    %fs:0x28,%rsi
  4024f7:	00 00 
  4024f9:	75 09                	jne    402504 <urlencode+0x10e>
  4024fb:	48 83 c4 10          	add    $0x10,%rsp
  4024ff:	5b                   	pop    %rbx
  402500:	5d                   	pop    %rbp
  402501:	41 5c                	pop    %r12
  402503:	c3                   	retq   
  402504:	e8 d7 e7 ff ff       	callq  400ce0 <__stack_chk_fail@plt>

0000000000402509 <submitr>:
  402509:	41 57                	push   %r15
  40250b:	41 56                	push   %r14
  40250d:	41 55                	push   %r13
  40250f:	41 54                	push   %r12
  402511:	55                   	push   %rbp
  402512:	53                   	push   %rbx
  402513:	48 81 ec 68 a0 00 00 	sub    $0xa068,%rsp
  40251a:	49 89 fd             	mov    %rdi,%r13
  40251d:	89 74 24 14          	mov    %esi,0x14(%rsp)
  402521:	49 89 d7             	mov    %rdx,%r15
  402524:	48 89 4c 24 08       	mov    %rcx,0x8(%rsp)
  402529:	4c 89 44 24 18       	mov    %r8,0x18(%rsp)
  40252e:	4d 89 ce             	mov    %r9,%r14
  402531:	48 8b ac 24 a0 a0 00 	mov    0xa0a0(%rsp),%rbp
  402538:	00 
  402539:	64 48 8b 04 25 28 00 	mov    %fs:0x28,%rax
  402540:	00 00 
  402542:	48 89 84 24 58 a0 00 	mov    %rax,0xa058(%rsp)
  402549:	00 
  40254a:	31 c0                	xor    %eax,%eax
  40254c:	c7 44 24 2c 00 00 00 	movl   $0x0,0x2c(%rsp)
  402553:	00 
  402554:	ba 00 00 00 00       	mov    $0x0,%edx
  402559:	be 01 00 00 00       	mov    $0x1,%esi
  40255e:	bf 02 00 00 00       	mov    $0x2,%edi
  402563:	e8 08 e9 ff ff       	callq  400e70 <socket@plt>
  402568:	85 c0                	test   %eax,%eax
  40256a:	0f 88 a9 02 00 00    	js     402819 <submitr+0x310>
  402570:	89 c3                	mov    %eax,%ebx
  402572:	4c 89 ef             	mov    %r13,%rdi
  402575:	e8 d6 e7 ff ff       	callq  400d50 <gethostbyname@plt>
  40257a:	48 85 c0             	test   %rax,%rax
  40257d:	0f 84 e2 02 00 00    	je     402865 <submitr+0x35c>
  402583:	4c 8d 64 24 30       	lea    0x30(%rsp),%r12
  402588:	48 c7 44 24 32 00 00 	movq   $0x0,0x32(%rsp)
  40258f:	00 00 
  402591:	c7 44 24 3a 00 00 00 	movl   $0x0,0x3a(%rsp)
  402598:	00 
  402599:	66 c7 44 24 3e 00 00 	movw   $0x0,0x3e(%rsp)
  4025a0:	66 c7 44 24 30 02 00 	movw   $0x2,0x30(%rsp)
  4025a7:	48 63 50 14          	movslq 0x14(%rax),%rdx
  4025ab:	48 8b 40 18          	mov    0x18(%rax),%rax
  4025af:	48 8b 30             	mov    (%rax),%rsi
  4025b2:	48 8d 7c 24 34       	lea    0x34(%rsp),%rdi
  4025b7:	b9 0c 00 00 00       	mov    $0xc,%ecx
  4025bc:	e8 9f e7 ff ff       	callq  400d60 <__memmove_chk@plt>
  4025c1:	0f b7 44 24 14       	movzwl 0x14(%rsp),%eax
  4025c6:	66 c1 c8 08          	ror    $0x8,%ax
  4025ca:	66 89 44 24 32       	mov    %ax,0x32(%rsp)
  4025cf:	ba 10 00 00 00       	mov    $0x10,%edx
  4025d4:	4c 89 e6             	mov    %r12,%rsi
  4025d7:	89 df                	mov    %ebx,%edi
  4025d9:	e8 62 e8 ff ff       	callq  400e40 <connect@plt>
  4025de:	85 c0                	test   %eax,%eax
  4025e0:	0f 88 e7 02 00 00    	js     4028cd <submitr+0x3c4>
  4025e6:	48 c7 c6 ff ff ff ff 	mov    $0xffffffffffffffff,%rsi
  4025ed:	b8 00 00 00 00       	mov    $0x0,%eax
  4025f2:	48 89 f1             	mov    %rsi,%rcx
  4025f5:	4c 89 f7             	mov    %r14,%rdi
  4025f8:	f2 ae                	repnz scas %es:(%rdi),%al
  4025fa:	48 89 ca             	mov    %rcx,%rdx
  4025fd:	48 f7 d2             	not    %rdx
  402600:	48 89 f1             	mov    %rsi,%rcx
  402603:	4c 89 ff             	mov    %r15,%rdi
  402606:	f2 ae                	repnz scas %es:(%rdi),%al
  402608:	48 f7 d1             	not    %rcx
  40260b:	49 89 c8             	mov    %rcx,%r8
  40260e:	48 89 f1             	mov    %rsi,%rcx
  402611:	48 8b 7c 24 08       	mov    0x8(%rsp),%rdi
  402616:	f2 ae                	repnz scas %es:(%rdi),%al
  402618:	48 f7 d1             	not    %rcx
  40261b:	4d 8d 44 08 fe       	lea    -0x2(%r8,%rcx,1),%r8
  402620:	48 89 f1             	mov    %rsi,%rcx
  402623:	48 8b 7c 24 18       	mov    0x18(%rsp),%rdi
  402628:	f2 ae                	repnz scas %es:(%rdi),%al
  40262a:	48 89 c8             	mov    %rcx,%rax
  40262d:	48 f7 d0             	not    %rax
  402630:	49 8d 4c 00 ff       	lea    -0x1(%r8,%rax,1),%rcx
  402635:	48 8d 44 52 fd       	lea    -0x3(%rdx,%rdx,2),%rax
  40263a:	48 8d 84 01 80 00 00 	lea    0x80(%rcx,%rax,1),%rax
  402641:	00 
  402642:	48 3d 00 20 00 00    	cmp    $0x2000,%rax
  402648:	0f 87 d9 02 00 00    	ja     402927 <submitr+0x41e>
  40264e:	48 8d b4 24 50 40 00 	lea    0x4050(%rsp),%rsi
  402655:	00 
  402656:	b9 00 04 00 00       	mov    $0x400,%ecx
  40265b:	b8 00 00 00 00       	mov    $0x0,%eax
  402660:	48 89 f7             	mov    %rsi,%rdi
  402663:	f3 48 ab             	rep stos %rax,%es:(%rdi)
  402666:	4c 89 f7             	mov    %r14,%rdi
  402669:	e8 88 fd ff ff       	callq  4023f6 <urlencode>
  40266e:	85 c0                	test   %eax,%eax
  402670:	0f 88 24 03 00 00    	js     40299a <submitr+0x491>
  402676:	4c 8d a4 24 50 20 00 	lea    0x2050(%rsp),%r12
  40267d:	00 
  40267e:	41 55                	push   %r13
  402680:	48 8d 84 24 58 40 00 	lea    0x4058(%rsp),%rax
  402687:	00 
  402688:	50                   	push   %rax
  402689:	4d 89 f9             	mov    %r15,%r9
  40268c:	4c 8b 44 24 18       	mov    0x18(%rsp),%r8
  402691:	48 8d 0d c0 10 00 00 	lea    0x10c0(%rip),%rcx        # 403758 <trans_char+0x38>
  402698:	ba 00 20 00 00       	mov    $0x2000,%edx
  40269d:	be 01 00 00 00       	mov    $0x1,%esi
  4026a2:	4c 89 e7             	mov    %r12,%rdi
  4026a5:	b8 00 00 00 00       	mov    $0x0,%eax
  4026aa:	e8 b1 e7 ff ff       	callq  400e60 <__sprintf_chk@plt>
  4026af:	48 c7 c1 ff ff ff ff 	mov    $0xffffffffffffffff,%rcx
  4026b6:	b8 00 00 00 00       	mov    $0x0,%eax
  4026bb:	4c 89 e7             	mov    %r12,%rdi
  4026be:	f2 ae                	repnz scas %es:(%rdi),%al
  4026c0:	48 89 ca             	mov    %rcx,%rdx
  4026c3:	48 f7 d2             	not    %rdx
  4026c6:	48 8d 52 ff          	lea    -0x1(%rdx),%rdx
  4026ca:	4c 89 e6             	mov    %r12,%rsi
  4026cd:	89 df                	mov    %ebx,%edi
  4026cf:	e8 95 fb ff ff       	callq  402269 <rio_writen>
  4026d4:	48 83 c4 10          	add    $0x10,%rsp
  4026d8:	48 85 c0             	test   %rax,%rax
  4026db:	0f 88 44 03 00 00    	js     402a25 <submitr+0x51c>
  4026e1:	4c 8d 64 24 40       	lea    0x40(%rsp),%r12
  4026e6:	89 de                	mov    %ebx,%esi
  4026e8:	4c 89 e7             	mov    %r12,%rdi
  4026eb:	e8 37 fb ff ff       	callq  402227 <rio_readinitb>
  4026f0:	48 8d b4 24 50 20 00 	lea    0x2050(%rsp),%rsi
  4026f7:	00 
  4026f8:	ba 00 20 00 00       	mov    $0x2000,%edx
  4026fd:	4c 89 e7             	mov    %r12,%rdi
  402700:	e8 4d fc ff ff       	callq  402352 <rio_readlineb>
  402705:	48 85 c0             	test   %rax,%rax
  402708:	0f 8e 86 03 00 00    	jle    402a94 <submitr+0x58b>
  40270e:	48 8d 4c 24 2c       	lea    0x2c(%rsp),%rcx
  402713:	48 8d 94 24 50 60 00 	lea    0x6050(%rsp),%rdx
  40271a:	00 
  40271b:	48 8d bc 24 50 20 00 	lea    0x2050(%rsp),%rdi
  402722:	00 
  402723:	4c 8d 84 24 50 80 00 	lea    0x8050(%rsp),%r8
  40272a:	00 
  40272b:	48 8d 35 9d 10 00 00 	lea    0x109d(%rip),%rsi        # 4037cf <trans_char+0xaf>
  402732:	b8 00 00 00 00       	mov    $0x0,%eax
  402737:	e8 84 e6 ff ff       	callq  400dc0 <__isoc99_sscanf@plt>
  40273c:	48 8d b4 24 50 20 00 	lea    0x2050(%rsp),%rsi
  402743:	00 
  402744:	b9 03 00 00 00       	mov    $0x3,%ecx
  402749:	48 8d 3d 96 10 00 00 	lea    0x1096(%rip),%rdi        # 4037e6 <trans_char+0xc6>
  402750:	f3 a6                	repz cmpsb %es:(%rdi),%ds:(%rsi)
  402752:	0f 97 c0             	seta   %al
  402755:	1c 00                	sbb    $0x0,%al
  402757:	84 c0                	test   %al,%al
  402759:	0f 84 b3 03 00 00    	je     402b12 <submitr+0x609>
  40275f:	48 8d b4 24 50 20 00 	lea    0x2050(%rsp),%rsi
  402766:	00 
  402767:	48 8d 7c 24 40       	lea    0x40(%rsp),%rdi
  40276c:	ba 00 20 00 00       	mov    $0x2000,%edx
  402771:	e8 dc fb ff ff       	callq  402352 <rio_readlineb>
  402776:	48 85 c0             	test   %rax,%rax
  402779:	7f c1                	jg     40273c <submitr+0x233>
  40277b:	48 b8 45 72 72 6f 72 	movabs $0x43203a726f727245,%rax
  402782:	3a 20 43 
  402785:	48 ba 6c 69 65 6e 74 	movabs $0x6e7520746e65696c,%rdx
  40278c:	20 75 6e 
  40278f:	48 89 45 00          	mov    %rax,0x0(%rbp)
  402793:	48 89 55 08          	mov    %rdx,0x8(%rbp)
  402797:	48 b8 61 62 6c 65 20 	movabs $0x206f7420656c6261,%rax
  40279e:	74 6f 20 
  4027a1:	48 ba 72 65 61 64 20 	movabs $0x6165682064616572,%rdx
  4027a8:	68 65 61 
  4027ab:	48 89 45 10          	mov    %rax,0x10(%rbp)
  4027af:	48 89 55 18          	mov    %rdx,0x18(%rbp)
  4027b3:	48 b8 64 65 72 73 20 	movabs $0x6f72662073726564,%rax
  4027ba:	66 72 6f 
  4027bd:	48 ba 6d 20 74 68 65 	movabs $0x657220656874206d,%rdx
  4027c4:	20 72 65 
  4027c7:	48 89 45 20          	mov    %rax,0x20(%rbp)
  4027cb:	48 89 55 28          	mov    %rdx,0x28(%rbp)
  4027cf:	48 b8 73 75 6c 74 20 	movabs $0x72657320746c7573,%rax
  4027d6:	73 65 72 
  4027d9:	48 89 45 30          	mov    %rax,0x30(%rbp)
  4027dd:	c7 45 38 76 65 72 00 	movl   $0x726576,0x38(%rbp)
  4027e4:	89 df                	mov    %ebx,%edi
  4027e6:	e8 35 e5 ff ff       	callq  400d20 <close@plt>
  4027eb:	b8 ff ff ff ff       	mov    $0xffffffff,%eax
  4027f0:	48 8b 9c 24 58 a0 00 	mov    0xa058(%rsp),%rbx
  4027f7:	00 
  4027f8:	64 48 33 1c 25 28 00 	xor    %fs:0x28,%rbx
  4027ff:	00 00 
  402801:	0f 85 7e 04 00 00    	jne    402c85 <submitr+0x77c>
  402807:	48 81 c4 68 a0 00 00 	add    $0xa068,%rsp
  40280e:	5b                   	pop    %rbx
  40280f:	5d                   	pop    %rbp
  402810:	41 5c                	pop    %r12
  402812:	41 5d                	pop    %r13
  402814:	41 5e                	pop    %r14
  402816:	41 5f                	pop    %r15
  402818:	c3                   	retq   
  402819:	48 b8 45 72 72 6f 72 	movabs $0x43203a726f727245,%rax
  402820:	3a 20 43 
  402823:	48 ba 6c 69 65 6e 74 	movabs $0x6e7520746e65696c,%rdx
  40282a:	20 75 6e 
  40282d:	48 89 45 00          	mov    %rax,0x0(%rbp)
  402831:	48 89 55 08          	mov    %rdx,0x8(%rbp)
  402835:	48 b8 61 62 6c 65 20 	movabs $0x206f7420656c6261,%rax
  40283c:	74 6f 20 
  40283f:	48 ba 63 72 65 61 74 	movabs $0x7320657461657263,%rdx
  402846:	65 20 73 
  402849:	48 89 45 10          	mov    %rax,0x10(%rbp)
  40284d:	48 89 55 18          	mov    %rdx,0x18(%rbp)
  402851:	c7 45 20 6f 63 6b 65 	movl   $0x656b636f,0x20(%rbp)
  402858:	66 c7 45 24 74 00    	movw   $0x74,0x24(%rbp)
  40285e:	b8 ff ff ff ff       	mov    $0xffffffff,%eax
  402863:	eb 8b                	jmp    4027f0 <submitr+0x2e7>
  402865:	48 b8 45 72 72 6f 72 	movabs $0x44203a726f727245,%rax
  40286c:	3a 20 44 
  40286f:	48 ba 4e 53 20 69 73 	movabs $0x6e7520736920534e,%rdx
  402876:	20 75 6e 
  402879:	48 89 45 00          	mov    %rax,0x0(%rbp)
  40287d:	48 89 55 08          	mov    %rdx,0x8(%rbp)
  402881:	48 b8 61 62 6c 65 20 	movabs $0x206f7420656c6261,%rax
  402888:	74 6f 20 
  40288b:	48 ba 72 65 73 6f 6c 	movabs $0x2065766c6f736572,%rdx
  402892:	76 65 20 
  402895:	48 89 45 10          	mov    %rax,0x10(%rbp)
  402899:	48 89 55 18          	mov    %rdx,0x18(%rbp)
  40289d:	48 b8 73 65 72 76 65 	movabs $0x6120726576726573,%rax
  4028a4:	72 20 61 
  4028a7:	48 89 45 20          	mov    %rax,0x20(%rbp)
  4028ab:	c7 45 28 64 64 72 65 	movl   $0x65726464,0x28(%rbp)
  4028b2:	66 c7 45 2c 73 73    	movw   $0x7373,0x2c(%rbp)
  4028b8:	c6 45 2e 00          	movb   $0x0,0x2e(%rbp)
  4028bc:	89 df                	mov    %ebx,%edi
  4028be:	e8 5d e4 ff ff       	callq  400d20 <close@plt>
  4028c3:	b8 ff ff ff ff       	mov    $0xffffffff,%eax
  4028c8:	e9 23 ff ff ff       	jmpq   4027f0 <submitr+0x2e7>
  4028cd:	48 b8 45 72 72 6f 72 	movabs $0x55203a726f727245,%rax
  4028d4:	3a 20 55 
  4028d7:	48 ba 6e 61 62 6c 65 	movabs $0x6f7420656c62616e,%rdx
  4028de:	20 74 6f 
  4028e1:	48 89 45 00          	mov    %rax,0x0(%rbp)
  4028e5:	48 89 55 08          	mov    %rdx,0x8(%rbp)
  4028e9:	48 b8 20 63 6f 6e 6e 	movabs $0x7463656e6e6f6320,%rax
  4028f0:	65 63 74 
  4028f3:	48 ba 20 74 6f 20 74 	movabs $0x20656874206f7420,%rdx
  4028fa:	68 65 20 
  4028fd:	48 89 45 10          	mov    %rax,0x10(%rbp)
  402901:	48 89 55 18          	mov    %rdx,0x18(%rbp)
  402905:	c7 45 20 73 65 72 76 	movl   $0x76726573,0x20(%rbp)
  40290c:	66 c7 45 24 65 72    	movw   $0x7265,0x24(%rbp)
  402912:	c6 45 26 00          	movb   $0x0,0x26(%rbp)
  402916:	89 df                	mov    %ebx,%edi
  402918:	e8 03 e4 ff ff       	callq  400d20 <close@plt>
  40291d:	b8 ff ff ff ff       	mov    $0xffffffff,%eax
  402922:	e9 c9 fe ff ff       	jmpq   4027f0 <submitr+0x2e7>
  402927:	48 b8 45 72 72 6f 72 	movabs $0x52203a726f727245,%rax
  40292e:	3a 20 52 
  402931:	48 ba 65 73 75 6c 74 	movabs $0x747320746c757365,%rdx
  402938:	20 73 74 
  40293b:	48 89 45 00          	mov    %rax,0x0(%rbp)
  40293f:	48 89 55 08          	mov    %rdx,0x8(%rbp)
  402943:	48 b8 72 69 6e 67 20 	movabs $0x6f6f7420676e6972,%rax
  40294a:	74 6f 6f 
  40294d:	48 ba 20 6c 61 72 67 	movabs $0x202e656772616c20,%rdx
  402954:	65 2e 20 
  402957:	48 89 45 10          	mov    %rax,0x10(%rbp)
  40295b:	48 89 55 18          	mov    %rdx,0x18(%rbp)
  40295f:	48 b8 49 6e 63 72 65 	movabs $0x6573616572636e49,%rax
  402966:	61 73 65 
  402969:	48 ba 20 53 55 42 4d 	movabs $0x5254494d42555320,%rdx
  402970:	49 54 52 
  402973:	48 89 45 20          	mov    %rax,0x20(%rbp)
  402977:	48 89 55 28          	mov    %rdx,0x28(%rbp)
  40297b:	48 b8 5f 4d 41 58 42 	movabs $0x46554258414d5f,%rax
  402982:	55 46 00 
  402985:	48 89 45 30          	mov    %rax,0x30(%rbp)
  402989:	89 df                	mov    %ebx,%edi
  40298b:	e8 90 e3 ff ff       	callq  400d20 <close@plt>
  402990:	b8 ff ff ff ff       	mov    $0xffffffff,%eax
  402995:	e9 56 fe ff ff       	jmpq   4027f0 <submitr+0x2e7>
  40299a:	48 b8 45 72 72 6f 72 	movabs $0x52203a726f727245,%rax
  4029a1:	3a 20 52 
  4029a4:	48 ba 65 73 75 6c 74 	movabs $0x747320746c757365,%rdx
  4029ab:	20 73 74 
  4029ae:	48 89 45 00          	mov    %rax,0x0(%rbp)
  4029b2:	48 89 55 08          	mov    %rdx,0x8(%rbp)
  4029b6:	48 b8 72 69 6e 67 20 	movabs $0x6e6f6320676e6972,%rax
  4029bd:	63 6f 6e 
  4029c0:	48 ba 74 61 69 6e 73 	movabs $0x6e6120736e696174,%rdx
  4029c7:	20 61 6e 
  4029ca:	48 89 45 10          	mov    %rax,0x10(%rbp)
  4029ce:	48 89 55 18          	mov    %rdx,0x18(%rbp)
  4029d2:	48 b8 20 69 6c 6c 65 	movabs $0x6c6167656c6c6920,%rax
  4029d9:	67 61 6c 
  4029dc:	48 ba 20 6f 72 20 75 	movabs $0x72706e7520726f20,%rdx
  4029e3:	6e 70 72 
  4029e6:	48 89 45 20          	mov    %rax,0x20(%rbp)
  4029ea:	48 89 55 28          	mov    %rdx,0x28(%rbp)
  4029ee:	48 b8 69 6e 74 61 62 	movabs $0x20656c6261746e69,%rax
  4029f5:	6c 65 20 
  4029f8:	48 ba 63 68 61 72 61 	movabs $0x6574636172616863,%rdx
  4029ff:	63 74 65 
  402a02:	48 89 45 30          	mov    %rax,0x30(%rbp)
  402a06:	48 89 55 38          	mov    %rdx,0x38(%rbp)
  402a0a:	66 c7 45 40 72 2e    	movw   $0x2e72,0x40(%rbp)
  402a10:	c6 45 42 00          	movb   $0x0,0x42(%rbp)
  402a14:	89 df                	mov    %ebx,%edi
  402a16:	e8 05 e3 ff ff       	callq  400d20 <close@plt>
  402a1b:	b8 ff ff ff ff       	mov    $0xffffffff,%eax
  402a20:	e9 cb fd ff ff       	jmpq   4027f0 <submitr+0x2e7>
  402a25:	48 b8 45 72 72 6f 72 	movabs $0x43203a726f727245,%rax
  402a2c:	3a 20 43 
  402a2f:	48 ba 6c 69 65 6e 74 	movabs $0x6e7520746e65696c,%rdx
  402a36:	20 75 6e 
  402a39:	48 89 45 00          	mov    %rax,0x0(%rbp)
  402a3d:	48 89 55 08          	mov    %rdx,0x8(%rbp)
  402a41:	48 b8 61 62 6c 65 20 	movabs $0x206f7420656c6261,%rax
  402a48:	74 6f 20 
  402a4b:	48 ba 77 72 69 74 65 	movabs $0x6f74206574697277,%rdx
  402a52:	20 74 6f 
  402a55:	48 89 45 10          	mov    %rax,0x10(%rbp)
  402a59:	48 89 55 18          	mov    %rdx,0x18(%rbp)
  402a5d:	48 b8 20 74 68 65 20 	movabs $0x7365722065687420,%rax
  402a64:	72 65 73 
  402a67:	48 ba 75 6c 74 20 73 	movabs $0x7672657320746c75,%rdx
  402a6e:	65 72 76 
  402a71:	48 89 45 20          	mov    %rax,0x20(%rbp)
  402a75:	48 89 55 28          	mov    %rdx,0x28(%rbp)
  402a79:	66 c7 45 30 65 72    	movw   $0x7265,0x30(%rbp)
  402a7f:	c6 45 32 00          	movb   $0x0,0x32(%rbp)
  402a83:	89 df                	mov    %ebx,%edi
  402a85:	e8 96 e2 ff ff       	callq  400d20 <close@plt>
  402a8a:	b8 ff ff ff ff       	mov    $0xffffffff,%eax
  402a8f:	e9 5c fd ff ff       	jmpq   4027f0 <submitr+0x2e7>
  402a94:	48 b8 45 72 72 6f 72 	movabs $0x43203a726f727245,%rax
  402a9b:	3a 20 43 
  402a9e:	48 ba 6c 69 65 6e 74 	movabs $0x6e7520746e65696c,%rdx
  402aa5:	20 75 6e 
  402aa8:	48 89 45 00          	mov    %rax,0x0(%rbp)
  402aac:	48 89 55 08          	mov    %rdx,0x8(%rbp)
  402ab0:	48 b8 61 62 6c 65 20 	movabs $0x206f7420656c6261,%rax
  402ab7:	74 6f 20 
  402aba:	48 ba 72 65 61 64 20 	movabs $0x7269662064616572,%rdx
  402ac1:	66 69 72 
  402ac4:	48 89 45 10          	mov    %rax,0x10(%rbp)
  402ac8:	48 89 55 18          	mov    %rdx,0x18(%rbp)
  402acc:	48 b8 73 74 20 68 65 	movabs $0x6564616568207473,%rax
  402ad3:	61 64 65 
  402ad6:	48 ba 72 20 66 72 6f 	movabs $0x72206d6f72662072,%rdx
  402add:	6d 20 72 
  402ae0:	48 89 45 20          	mov    %rax,0x20(%rbp)
  402ae4:	48 89 55 28          	mov    %rdx,0x28(%rbp)
  402ae8:	48 b8 65 73 75 6c 74 	movabs $0x657320746c757365,%rax
  402aef:	20 73 65 
  402af2:	48 89 45 30          	mov    %rax,0x30(%rbp)
  402af6:	c7 45 38 72 76 65 72 	movl   $0x72657672,0x38(%rbp)
  402afd:	c6 45 3c 00          	movb   $0x0,0x3c(%rbp)
  402b01:	89 df                	mov    %ebx,%edi
  402b03:	e8 18 e2 ff ff       	callq  400d20 <close@plt>
  402b08:	b8 ff ff ff ff       	mov    $0xffffffff,%eax
  402b0d:	e9 de fc ff ff       	jmpq   4027f0 <submitr+0x2e7>
  402b12:	48 8d b4 24 50 20 00 	lea    0x2050(%rsp),%rsi
  402b19:	00 
  402b1a:	48 8d 7c 24 40       	lea    0x40(%rsp),%rdi
  402b1f:	ba 00 20 00 00       	mov    $0x2000,%edx
  402b24:	e8 29 f8 ff ff       	callq  402352 <rio_readlineb>
  402b29:	48 85 c0             	test   %rax,%rax
  402b2c:	0f 8e 96 00 00 00    	jle    402bc8 <submitr+0x6bf>
  402b32:	44 8b 44 24 2c       	mov    0x2c(%rsp),%r8d
  402b37:	41 81 f8 c8 00 00 00 	cmp    $0xc8,%r8d
  402b3e:	0f 85 08 01 00 00    	jne    402c4c <submitr+0x743>
  402b44:	48 8d b4 24 50 20 00 	lea    0x2050(%rsp),%rsi
  402b4b:	00 
  402b4c:	48 89 ef             	mov    %rbp,%rdi
  402b4f:	e8 5c e1 ff ff       	callq  400cb0 <strcpy@plt>
  402b54:	89 df                	mov    %ebx,%edi
  402b56:	e8 c5 e1 ff ff       	callq  400d20 <close@plt>
  402b5b:	b9 04 00 00 00       	mov    $0x4,%ecx
  402b60:	48 8d 3d 79 0c 00 00 	lea    0xc79(%rip),%rdi        # 4037e0 <trans_char+0xc0>
  402b67:	48 89 ee             	mov    %rbp,%rsi
  402b6a:	f3 a6                	repz cmpsb %es:(%rdi),%ds:(%rsi)
  402b6c:	0f 97 c0             	seta   %al
  402b6f:	1c 00                	sbb    $0x0,%al
  402b71:	0f be c0             	movsbl %al,%eax
  402b74:	85 c0                	test   %eax,%eax
  402b76:	0f 84 74 fc ff ff    	je     4027f0 <submitr+0x2e7>
  402b7c:	b9 05 00 00 00       	mov    $0x5,%ecx
  402b81:	48 8d 3d 5c 0c 00 00 	lea    0xc5c(%rip),%rdi        # 4037e4 <trans_char+0xc4>
  402b88:	48 89 ee             	mov    %rbp,%rsi
  402b8b:	f3 a6                	repz cmpsb %es:(%rdi),%ds:(%rsi)
  402b8d:	0f 97 c0             	seta   %al
  402b90:	1c 00                	sbb    $0x0,%al
  402b92:	0f be c0             	movsbl %al,%eax
  402b95:	85 c0                	test   %eax,%eax
  402b97:	0f 84 53 fc ff ff    	je     4027f0 <submitr+0x2e7>
  402b9d:	b9 03 00 00 00       	mov    $0x3,%ecx
  402ba2:	48 8d 3d 40 0c 00 00 	lea    0xc40(%rip),%rdi        # 4037e9 <trans_char+0xc9>
  402ba9:	48 89 ee             	mov    %rbp,%rsi
  402bac:	f3 a6                	repz cmpsb %es:(%rdi),%ds:(%rsi)
  402bae:	0f 97 c0             	seta   %al
  402bb1:	1c 00                	sbb    $0x0,%al
  402bb3:	0f be c0             	movsbl %al,%eax
  402bb6:	85 c0                	test   %eax,%eax
  402bb8:	0f 84 32 fc ff ff    	je     4027f0 <submitr+0x2e7>
  402bbe:	b8 ff ff ff ff       	mov    $0xffffffff,%eax
  402bc3:	e9 28 fc ff ff       	jmpq   4027f0 <submitr+0x2e7>
  402bc8:	48 b8 45 72 72 6f 72 	movabs $0x43203a726f727245,%rax
  402bcf:	3a 20 43 
  402bd2:	48 ba 6c 69 65 6e 74 	movabs $0x6e7520746e65696c,%rdx
  402bd9:	20 75 6e 
  402bdc:	48 89 45 00          	mov    %rax,0x0(%rbp)
  402be0:	48 89 55 08          	mov    %rdx,0x8(%rbp)
  402be4:	48 b8 61 62 6c 65 20 	movabs $0x206f7420656c6261,%rax
  402beb:	74 6f 20 
  402bee:	48 ba 72 65 61 64 20 	movabs $0x6174732064616572,%rdx
  402bf5:	73 74 61 
  402bf8:	48 89 45 10          	mov    %rax,0x10(%rbp)
  402bfc:	48 89 55 18          	mov    %rdx,0x18(%rbp)
  402c00:	48 b8 74 75 73 20 6d 	movabs $0x7373656d20737574,%rax
  402c07:	65 73 73 
  402c0a:	48 ba 61 67 65 20 66 	movabs $0x6d6f726620656761,%rdx
  402c11:	72 6f 6d 
  402c14:	48 89 45 20          	mov    %rax,0x20(%rbp)
  402c18:	48 89 55 28          	mov    %rdx,0x28(%rbp)
  402c1c:	48 b8 20 72 65 73 75 	movabs $0x20746c7573657220,%rax
  402c23:	6c 74 20 
  402c26:	48 89 45 30          	mov    %rax,0x30(%rbp)
  402c2a:	c7 45 38 73 65 72 76 	movl   $0x76726573,0x38(%rbp)
  402c31:	66 c7 45 3c 65 72    	movw   $0x7265,0x3c(%rbp)
  402c37:	c6 45 3e 00          	movb   $0x0,0x3e(%rbp)
  402c3b:	89 df                	mov    %ebx,%edi
  402c3d:	e8 de e0 ff ff       	callq  400d20 <close@plt>
  402c42:	b8 ff ff ff ff       	mov    $0xffffffff,%eax
  402c47:	e9 a4 fb ff ff       	jmpq   4027f0 <submitr+0x2e7>
  402c4c:	4c 8d 8c 24 50 80 00 	lea    0x8050(%rsp),%r9
  402c53:	00 
  402c54:	48 8d 0d 3d 0b 00 00 	lea    0xb3d(%rip),%rcx        # 403798 <trans_char+0x78>
  402c5b:	48 c7 c2 ff ff ff ff 	mov    $0xffffffffffffffff,%rdx
  402c62:	be 01 00 00 00       	mov    $0x1,%esi
  402c67:	48 89 ef             	mov    %rbp,%rdi
  402c6a:	b8 00 00 00 00       	mov    $0x0,%eax
  402c6f:	e8 ec e1 ff ff       	callq  400e60 <__sprintf_chk@plt>
  402c74:	89 df                	mov    %ebx,%edi
  402c76:	e8 a5 e0 ff ff       	callq  400d20 <close@plt>
  402c7b:	b8 ff ff ff ff       	mov    $0xffffffff,%eax
  402c80:	e9 6b fb ff ff       	jmpq   4027f0 <submitr+0x2e7>
  402c85:	e8 56 e0 ff ff       	callq  400ce0 <__stack_chk_fail@plt>

0000000000402c8a <init_timeout>:
  402c8a:	85 ff                	test   %edi,%edi
  402c8c:	74 28                	je     402cb6 <init_timeout+0x2c>
  402c8e:	53                   	push   %rbx
  402c8f:	89 fb                	mov    %edi,%ebx
  402c91:	85 ff                	test   %edi,%edi
  402c93:	78 1a                	js     402caf <init_timeout+0x25>
  402c95:	48 8d 35 9d f5 ff ff 	lea    -0xa63(%rip),%rsi        # 402239 <sigalrm_handler>
  402c9c:	bf 0e 00 00 00       	mov    $0xe,%edi
  402ca1:	e8 9a e0 ff ff       	callq  400d40 <signal@plt>
  402ca6:	89 df                	mov    %ebx,%edi
  402ca8:	e8 63 e0 ff ff       	callq  400d10 <alarm@plt>
  402cad:	5b                   	pop    %rbx
  402cae:	c3                   	retq   
  402caf:	bb 00 00 00 00       	mov    $0x0,%ebx
  402cb4:	eb df                	jmp    402c95 <init_timeout+0xb>
  402cb6:	f3 c3                	repz retq 

0000000000402cb8 <init_driver>:
  402cb8:	41 54                	push   %r12
  402cba:	55                   	push   %rbp
  402cbb:	53                   	push   %rbx
  402cbc:	48 83 ec 20          	sub    $0x20,%rsp
  402cc0:	49 89 fc             	mov    %rdi,%r12
  402cc3:	64 48 8b 04 25 28 00 	mov    %fs:0x28,%rax
  402cca:	00 00 
  402ccc:	48 89 44 24 18       	mov    %rax,0x18(%rsp)
  402cd1:	31 c0                	xor    %eax,%eax
  402cd3:	be 01 00 00 00       	mov    $0x1,%esi
  402cd8:	bf 0d 00 00 00       	mov    $0xd,%edi
  402cdd:	e8 5e e0 ff ff       	callq  400d40 <signal@plt>
  402ce2:	be 01 00 00 00       	mov    $0x1,%esi
  402ce7:	bf 1d 00 00 00       	mov    $0x1d,%edi
  402cec:	e8 4f e0 ff ff       	callq  400d40 <signal@plt>
  402cf1:	be 01 00 00 00       	mov    $0x1,%esi
  402cf6:	bf 1d 00 00 00       	mov    $0x1d,%edi
  402cfb:	e8 40 e0 ff ff       	callq  400d40 <signal@plt>
  402d00:	ba 00 00 00 00       	mov    $0x0,%edx
  402d05:	be 01 00 00 00       	mov    $0x1,%esi
  402d0a:	bf 02 00 00 00       	mov    $0x2,%edi
  402d0f:	e8 5c e1 ff ff       	callq  400e70 <socket@plt>
  402d14:	85 c0                	test   %eax,%eax
  402d16:	0f 88 a3 00 00 00    	js     402dbf <init_driver+0x107>
  402d1c:	89 c3                	mov    %eax,%ebx
  402d1e:	48 8d 3d c7 0a 00 00 	lea    0xac7(%rip),%rdi        # 4037ec <trans_char+0xcc>
  402d25:	e8 26 e0 ff ff       	callq  400d50 <gethostbyname@plt>
  402d2a:	48 85 c0             	test   %rax,%rax
  402d2d:	0f 84 df 00 00 00    	je     402e12 <init_driver+0x15a>
  402d33:	48 89 e5             	mov    %rsp,%rbp
  402d36:	48 c7 44 24 02 00 00 	movq   $0x0,0x2(%rsp)
  402d3d:	00 00 
  402d3f:	c7 45 0a 00 00 00 00 	movl   $0x0,0xa(%rbp)
  402d46:	66 c7 45 0e 00 00    	movw   $0x0,0xe(%rbp)
  402d4c:	66 c7 04 24 02 00    	movw   $0x2,(%rsp)
  402d52:	48 63 50 14          	movslq 0x14(%rax),%rdx
  402d56:	48 8b 40 18          	mov    0x18(%rax),%rax
  402d5a:	48 8b 30             	mov    (%rax),%rsi
  402d5d:	48 8d 7d 04          	lea    0x4(%rbp),%rdi
  402d61:	b9 0c 00 00 00       	mov    $0xc,%ecx
  402d66:	e8 f5 df ff ff       	callq  400d60 <__memmove_chk@plt>
  402d6b:	66 c7 44 24 02 77 09 	movw   $0x977,0x2(%rsp)
  402d72:	ba 10 00 00 00       	mov    $0x10,%edx
  402d77:	48 89 ee             	mov    %rbp,%rsi
  402d7a:	89 df                	mov    %ebx,%edi
  402d7c:	e8 bf e0 ff ff       	callq  400e40 <connect@plt>
  402d81:	85 c0                	test   %eax,%eax
  402d83:	0f 88 fb 00 00 00    	js     402e84 <init_driver+0x1cc>
  402d89:	89 df                	mov    %ebx,%edi
  402d8b:	e8 90 df ff ff       	callq  400d20 <close@plt>
  402d90:	66 41 c7 04 24 4f 4b 	movw   $0x4b4f,(%r12)
  402d97:	41 c6 44 24 02 00    	movb   $0x0,0x2(%r12)
  402d9d:	b8 00 00 00 00       	mov    $0x0,%eax
  402da2:	48 8b 4c 24 18       	mov    0x18(%rsp),%rcx
  402da7:	64 48 33 0c 25 28 00 	xor    %fs:0x28,%rcx
  402dae:	00 00 
  402db0:	0f 85 28 01 00 00    	jne    402ede <init_driver+0x226>
  402db6:	48 83 c4 20          	add    $0x20,%rsp
  402dba:	5b                   	pop    %rbx
  402dbb:	5d                   	pop    %rbp
  402dbc:	41 5c                	pop    %r12
  402dbe:	c3                   	retq   
  402dbf:	48 b8 45 72 72 6f 72 	movabs $0x43203a726f727245,%rax
  402dc6:	3a 20 43 
  402dc9:	48 ba 6c 69 65 6e 74 	movabs $0x6e7520746e65696c,%rdx
  402dd0:	20 75 6e 
  402dd3:	49 89 04 24          	mov    %rax,(%r12)
  402dd7:	49 89 54 24 08       	mov    %rdx,0x8(%r12)
  402ddc:	48 b8 61 62 6c 65 20 	movabs $0x206f7420656c6261,%rax
  402de3:	74 6f 20 
  402de6:	48 ba 63 72 65 61 74 	movabs $0x7320657461657263,%rdx
  402ded:	65 20 73 
  402df0:	49 89 44 24 10       	mov    %rax,0x10(%r12)
  402df5:	49 89 54 24 18       	mov    %rdx,0x18(%r12)
  402dfa:	41 c7 44 24 20 6f 63 	movl   $0x656b636f,0x20(%r12)
  402e01:	6b 65 
  402e03:	66 41 c7 44 24 24 74 	movw   $0x74,0x24(%r12)
  402e0a:	00 
  402e0b:	b8 ff ff ff ff       	mov    $0xffffffff,%eax
  402e10:	eb 90                	jmp    402da2 <init_driver+0xea>
  402e12:	48 b8 45 72 72 6f 72 	movabs $0x44203a726f727245,%rax
  402e19:	3a 20 44 
  402e1c:	48 ba 4e 53 20 69 73 	movabs $0x6e7520736920534e,%rdx
  402e23:	20 75 6e 
  402e26:	49 89 04 24          	mov    %rax,(%r12)
  402e2a:	49 89 54 24 08       	mov    %rdx,0x8(%r12)
  402e2f:	48 b8 61 62 6c 65 20 	movabs $0x206f7420656c6261,%rax
  402e36:	74 6f 20 
  402e39:	48 ba 72 65 73 6f 6c 	movabs $0x2065766c6f736572,%rdx
  402e40:	76 65 20 
  402e43:	49 89 44 24 10       	mov    %rax,0x10(%r12)
  402e48:	49 89 54 24 18       	mov    %rdx,0x18(%r12)
  402e4d:	48 b8 73 65 72 76 65 	movabs $0x6120726576726573,%rax
  402e54:	72 20 61 
  402e57:	49 89 44 24 20       	mov    %rax,0x20(%r12)
  402e5c:	41 c7 44 24 28 64 64 	movl   $0x65726464,0x28(%r12)
  402e63:	72 65 
  402e65:	66 41 c7 44 24 2c 73 	movw   $0x7373,0x2c(%r12)
  402e6c:	73 
  402e6d:	41 c6 44 24 2e 00    	movb   $0x0,0x2e(%r12)
  402e73:	89 df                	mov    %ebx,%edi
  402e75:	e8 a6 de ff ff       	callq  400d20 <close@plt>
  402e7a:	b8 ff ff ff ff       	mov    $0xffffffff,%eax
  402e7f:	e9 1e ff ff ff       	jmpq   402da2 <init_driver+0xea>
  402e84:	48 b8 45 72 72 6f 72 	movabs $0x55203a726f727245,%rax
  402e8b:	3a 20 55 
  402e8e:	48 ba 6e 61 62 6c 65 	movabs $0x6f7420656c62616e,%rdx
  402e95:	20 74 6f 
  402e98:	49 89 04 24          	mov    %rax,(%r12)
  402e9c:	49 89 54 24 08       	mov    %rdx,0x8(%r12)
  402ea1:	48 b8 20 63 6f 6e 6e 	movabs $0x7463656e6e6f6320,%rax
  402ea8:	65 63 74 
  402eab:	48 ba 20 74 6f 20 73 	movabs $0x76726573206f7420,%rdx
  402eb2:	65 72 76 
  402eb5:	49 89 44 24 10       	mov    %rax,0x10(%r12)
  402eba:	49 89 54 24 18       	mov    %rdx,0x18(%r12)
  402ebf:	66 41 c7 44 24 20 65 	movw   $0x7265,0x20(%r12)
  402ec6:	72 
  402ec7:	41 c6 44 24 22 00    	movb   $0x0,0x22(%r12)
  402ecd:	89 df                	mov    %ebx,%edi
  402ecf:	e8 4c de ff ff       	callq  400d20 <close@plt>
  402ed4:	b8 ff ff ff ff       	mov    $0xffffffff,%eax
  402ed9:	e9 c4 fe ff ff       	jmpq   402da2 <init_driver+0xea>
  402ede:	e8 fd dd ff ff       	callq  400ce0 <__stack_chk_fail@plt>

0000000000402ee3 <driver_post>:
  402ee3:	53                   	push   %rbx
  402ee4:	4c 89 cb             	mov    %r9,%rbx
  402ee7:	45 85 c0             	test   %r8d,%r8d
  402eea:	75 18                	jne    402f04 <driver_post+0x21>
  402eec:	48 85 ff             	test   %rdi,%rdi
  402eef:	74 05                	je     402ef6 <driver_post+0x13>
  402ef1:	80 3f 00             	cmpb   $0x0,(%rdi)
  402ef4:	75 37                	jne    402f2d <driver_post+0x4a>
  402ef6:	66 c7 03 4f 4b       	movw   $0x4b4f,(%rbx)
  402efb:	c6 43 02 00          	movb   $0x0,0x2(%rbx)
  402eff:	44 89 c0             	mov    %r8d,%eax
  402f02:	5b                   	pop    %rbx
  402f03:	c3                   	retq   
  402f04:	48 89 ca             	mov    %rcx,%rdx
  402f07:	48 8d 35 ed 08 00 00 	lea    0x8ed(%rip),%rsi        # 4037fb <trans_char+0xdb>
  402f0e:	bf 01 00 00 00       	mov    $0x1,%edi
  402f13:	b8 00 00 00 00       	mov    $0x0,%eax
  402f18:	e8 c3 de ff ff       	callq  400de0 <__printf_chk@plt>
  402f1d:	66 c7 03 4f 4b       	movw   $0x4b4f,(%rbx)
  402f22:	c6 43 02 00          	movb   $0x0,0x2(%rbx)
  402f26:	b8 00 00 00 00       	mov    $0x0,%eax
  402f2b:	eb d5                	jmp    402f02 <driver_post+0x1f>
  402f2d:	48 83 ec 08          	sub    $0x8,%rsp
  402f31:	41 51                	push   %r9
  402f33:	49 89 c9             	mov    %rcx,%r9
  402f36:	49 89 d0             	mov    %rdx,%r8
  402f39:	48 89 f9             	mov    %rdi,%rcx
  402f3c:	48 89 f2             	mov    %rsi,%rdx
  402f3f:	be 09 77 00 00       	mov    $0x7709,%esi
  402f44:	48 8d 3d a1 08 00 00 	lea    0x8a1(%rip),%rdi        # 4037ec <trans_char+0xcc>
  402f4b:	e8 b9 f5 ff ff       	callq  402509 <submitr>
  402f50:	48 83 c4 10          	add    $0x10,%rsp
  402f54:	eb ac                	jmp    402f02 <driver_post+0x1f>

0000000000402f56 <check>:
  402f56:	89 f8                	mov    %edi,%eax
  402f58:	c1 e8 1c             	shr    $0x1c,%eax
  402f5b:	85 c0                	test   %eax,%eax
  402f5d:	74 1d                	je     402f7c <check+0x26>
  402f5f:	b9 00 00 00 00       	mov    $0x0,%ecx
  402f64:	83 f9 1f             	cmp    $0x1f,%ecx
  402f67:	7f 0d                	jg     402f76 <check+0x20>
  402f69:	89 f8                	mov    %edi,%eax
  402f6b:	d3 e8                	shr    %cl,%eax
  402f6d:	3c 0a                	cmp    $0xa,%al
  402f6f:	74 11                	je     402f82 <check+0x2c>
  402f71:	83 c1 08             	add    $0x8,%ecx
  402f74:	eb ee                	jmp    402f64 <check+0xe>
  402f76:	b8 01 00 00 00       	mov    $0x1,%eax
  402f7b:	c3                   	retq   
  402f7c:	b8 00 00 00 00       	mov    $0x0,%eax
  402f81:	c3                   	retq   
  402f82:	b8 00 00 00 00       	mov    $0x0,%eax
  402f87:	c3                   	retq   

0000000000402f88 <gencookie>:
  402f88:	53                   	push   %rbx
  402f89:	83 c7 01             	add    $0x1,%edi
  402f8c:	e8 ff dc ff ff       	callq  400c90 <srandom@plt>
  402f91:	e8 0a de ff ff       	callq  400da0 <random@plt>
  402f96:	89 c3                	mov    %eax,%ebx
  402f98:	89 c7                	mov    %eax,%edi
  402f9a:	e8 b7 ff ff ff       	callq  402f56 <check>
  402f9f:	85 c0                	test   %eax,%eax
  402fa1:	74 ee                	je     402f91 <gencookie+0x9>
  402fa3:	89 d8                	mov    %ebx,%eax
  402fa5:	5b                   	pop    %rbx
  402fa6:	c3                   	retq   
  402fa7:	66 0f 1f 84 00 00 00 	nopw   0x0(%rax,%rax,1)
  402fae:	00 00 

0000000000402fb0 <__libc_csu_init>:
  402fb0:	41 57                	push   %r15
  402fb2:	41 56                	push   %r14
  402fb4:	49 89 d7             	mov    %rdx,%r15
  402fb7:	41 55                	push   %r13
  402fb9:	41 54                	push   %r12
  402fbb:	4c 8d 25 4e 1e 20 00 	lea    0x201e4e(%rip),%r12        # 604e10 <__frame_dummy_init_array_entry>
  402fc2:	55                   	push   %rbp
  402fc3:	48 8d 2d 4e 1e 20 00 	lea    0x201e4e(%rip),%rbp        # 604e18 <__do_global_dtors_aux_fini_array_entry>
  402fca:	53                   	push   %rbx
  402fcb:	41 89 fd             	mov    %edi,%r13d
  402fce:	49 89 f6             	mov    %rsi,%r14
  402fd1:	4c 29 e5             	sub    %r12,%rbp
  402fd4:	48 83 ec 08          	sub    $0x8,%rsp
  402fd8:	48 c1 fd 03          	sar    $0x3,%rbp
  402fdc:	e8 67 dc ff ff       	callq  400c48 <_init>
  402fe1:	48 85 ed             	test   %rbp,%rbp
  402fe4:	74 20                	je     403006 <__libc_csu_init+0x56>
  402fe6:	31 db                	xor    %ebx,%ebx
  402fe8:	0f 1f 84 00 00 00 00 	nopl   0x0(%rax,%rax,1)
  402fef:	00 
  402ff0:	4c 89 fa             	mov    %r15,%rdx
  402ff3:	4c 89 f6             	mov    %r14,%rsi
  402ff6:	44 89 ef             	mov    %r13d,%edi
  402ff9:	41 ff 14 dc          	callq  *(%r12,%rbx,8)
  402ffd:	48 83 c3 01          	add    $0x1,%rbx
  403001:	48 39 dd             	cmp    %rbx,%rbp
  403004:	75 ea                	jne    402ff0 <__libc_csu_init+0x40>
  403006:	48 83 c4 08          	add    $0x8,%rsp
  40300a:	5b                   	pop    %rbx
  40300b:	5d                   	pop    %rbp
  40300c:	41 5c                	pop    %r12
  40300e:	41 5d                	pop    %r13
  403010:	41 5e                	pop    %r14
  403012:	41 5f                	pop    %r15
  403014:	c3                   	retq   
  403015:	90                   	nop
  403016:	66 2e 0f 1f 84 00 00 	nopw   %cs:0x0(%rax,%rax,1)
  40301d:	00 00 00 

0000000000403020 <__libc_csu_fini>:
  403020:	f3 c3                	repz retq 

Disassembly of section .fini:

0000000000403024 <_fini>:
  403024:	48 83 ec 08          	sub    $0x8,%rsp
  403028:	48 83 c4 08          	add    $0x8,%rsp
  40302c:	c3                   	retq   
